/opt/riscv//bin/riscv32-unknown-elf-objdump -Mmarch=rv32imfcxpulpv2 /home/drossi/prj/pulpissimo/pulp-sdk/pulp-training/test_compiler/build/pulpissimo/test/test -d

/home/drossi/prj/pulpissimo/pulp-sdk/pulp-training/test_compiler/build/pulpissimo/test/test:     file format elf32-littleriscv


Disassembly of section .vectors:

1c008000 <__irq_vector_base>:
1c008000:	0940006f          	j	1c008094 <__rt_no_irq_handler>
1c008004:	0900006f          	j	1c008094 <__rt_no_irq_handler>
1c008008:	08c0006f          	j	1c008094 <__rt_no_irq_handler>
1c00800c:	0880006f          	j	1c008094 <__rt_no_irq_handler>
1c008010:	0840006f          	j	1c008094 <__rt_no_irq_handler>
1c008014:	0800006f          	j	1c008094 <__rt_no_irq_handler>
1c008018:	07c0006f          	j	1c008094 <__rt_no_irq_handler>
1c00801c:	0780006f          	j	1c008094 <__rt_no_irq_handler>
1c008020:	0740006f          	j	1c008094 <__rt_no_irq_handler>
1c008024:	0700006f          	j	1c008094 <__rt_no_irq_handler>
1c008028:	06c0006f          	j	1c008094 <__rt_no_irq_handler>
1c00802c:	0680006f          	j	1c008094 <__rt_no_irq_handler>
1c008030:	0640006f          	j	1c008094 <__rt_no_irq_handler>
1c008034:	0600006f          	j	1c008094 <__rt_no_irq_handler>
1c008038:	05c0006f          	j	1c008094 <__rt_no_irq_handler>
1c00803c:	0580006f          	j	1c008094 <__rt_no_irq_handler>
1c008040:	0540006f          	j	1c008094 <__rt_no_irq_handler>
1c008044:	0500006f          	j	1c008094 <__rt_no_irq_handler>
1c008048:	04c0006f          	j	1c008094 <__rt_no_irq_handler>
1c00804c:	0480006f          	j	1c008094 <__rt_no_irq_handler>
1c008050:	0440006f          	j	1c008094 <__rt_no_irq_handler>
1c008054:	0400006f          	j	1c008094 <__rt_no_irq_handler>
1c008058:	03c0006f          	j	1c008094 <__rt_no_irq_handler>
1c00805c:	0380006f          	j	1c008094 <__rt_no_irq_handler>
1c008060:	0340006f          	j	1c008094 <__rt_no_irq_handler>
1c008064:	0300006f          	j	1c008094 <__rt_no_irq_handler>
1c008068:	02c0006f          	j	1c008094 <__rt_no_irq_handler>
1c00806c:	0280006f          	j	1c008094 <__rt_no_irq_handler>
1c008070:	0240006f          	j	1c008094 <__rt_no_irq_handler>
1c008074:	0200006f          	j	1c008094 <__rt_no_irq_handler>
1c008078:	01c0006f          	j	1c008094 <__rt_no_irq_handler>
1c00807c:	0180006f          	j	1c008094 <__rt_no_irq_handler>

1c008080 <_start>:
1c008080:	0180006f          	j	1c008098 <_stext>
1c008084:	0cc0006f          	j	1c008150 <__rt_illegal_instr>
	...

1c008090 <__rt_debug_struct_ptr>:
1c008090:	0d94                	addi	a3,sp,720
1c008092:	1c00                	addi	s0,sp,560

1c008094 <__rt_no_irq_handler>:
1c008094:	0000006f          	j	1c008094 <__rt_no_irq_handler>

Disassembly of section .text:

1c008098 <_stext>:
1c008098:	ffff9297          	auipc	t0,0xffff9
1c00809c:	db028293          	addi	t0,t0,-592 # 1c000e48 <_bss_start>
1c0080a0:	ffff9317          	auipc	t1,0xffff9
1c0080a4:	e4c30313          	addi	t1,t1,-436 # 1c000eec <__L2_priv0_end>
1c0080a8:	0002a023          	sw	zero,0(t0)
1c0080ac:	0291                	addi	t0,t0,4
1c0080ae:	fe62ede3          	bltu	t0,t1,1c0080a8 <_stext+0x10>
1c0080b2:	ffff9117          	auipc	sp,0xffff9
1c0080b6:	bfe10113          	addi	sp,sp,-1026 # 1c000cb0 <stack>
1c0080ba:	211000ef          	jal	ra,1c008aca <__rt_init>
1c0080be:	00000513          	li	a0,0
1c0080c2:	00000593          	li	a1,0
1c0080c6:	00001397          	auipc	t2,0x1
1c0080ca:	9f638393          	addi	t2,t2,-1546 # 1c008abc <main>
1c0080ce:	000380e7          	jalr	t2
1c0080d2:	842a                	mv	s0,a0
1c0080d4:	271000ef          	jal	ra,1c008b44 <__rt_deinit>
1c0080d8:	8522                	mv	a0,s0
1c0080da:	680010ef          	jal	ra,1c00975a <exit>

1c0080de <_fini>:
1c0080de:	8082                	ret

1c0080e0 <__rt_thread_start>:
1c0080e0:	8526                	mv	a0,s1
1c0080e2:	80ca                	mv	ra,s2
1c0080e4:	8402                	jr	s0

1c0080e6 <__rt_thread_switch>:
1c0080e6:	00152023          	sw	ra,0(a0)
1c0080ea:	c140                	sw	s0,4(a0)
1c0080ec:	c504                	sw	s1,8(a0)
1c0080ee:	01252623          	sw	s2,12(a0)
1c0080f2:	01352823          	sw	s3,16(a0)
1c0080f6:	01452a23          	sw	s4,20(a0)
1c0080fa:	01552c23          	sw	s5,24(a0)
1c0080fe:	01652e23          	sw	s6,28(a0)
1c008102:	03752023          	sw	s7,32(a0)
1c008106:	03852223          	sw	s8,36(a0)
1c00810a:	03952423          	sw	s9,40(a0)
1c00810e:	03a52623          	sw	s10,44(a0)
1c008112:	03b52823          	sw	s11,48(a0)
1c008116:	02252a23          	sw	sp,52(a0)
1c00811a:	0005a083          	lw	ra,0(a1)
1c00811e:	41c0                	lw	s0,4(a1)
1c008120:	4584                	lw	s1,8(a1)
1c008122:	00c5a903          	lw	s2,12(a1)
1c008126:	0105a983          	lw	s3,16(a1)
1c00812a:	0145aa03          	lw	s4,20(a1)
1c00812e:	0185aa83          	lw	s5,24(a1)
1c008132:	01c5ab03          	lw	s6,28(a1)
1c008136:	0205ab83          	lw	s7,32(a1)
1c00813a:	0245ac03          	lw	s8,36(a1)
1c00813e:	0285ac83          	lw	s9,40(a1)
1c008142:	02c5ad03          	lw	s10,44(a1)
1c008146:	0305ad83          	lw	s11,48(a1)
1c00814a:	0345a103          	lw	sp,52(a1)
1c00814e:	8082                	ret

1c008150 <__rt_illegal_instr>:
1c008150:	fe112e23          	sw	ra,-4(sp)
1c008154:	fea12c23          	sw	a0,-8(sp)
1c008158:	00001517          	auipc	a0,0x1
1c00815c:	a5850513          	addi	a0,a0,-1448 # 1c008bb0 <__rt_handle_illegal_instr>
1c008160:	010000ef          	jal	ra,1c008170 <__rt_call_c_function>
1c008164:	ffc12083          	lw	ra,-4(sp)
1c008168:	ff812503          	lw	a0,-8(sp)
1c00816c:	30200073          	mret

1c008170 <__rt_call_c_function>:
1c008170:	7119                	addi	sp,sp,-128
1c008172:	c006                	sw	ra,0(sp)
1c008174:	c20e                	sw	gp,4(sp)
1c008176:	c412                	sw	tp,8(sp)
1c008178:	c616                	sw	t0,12(sp)
1c00817a:	c81a                	sw	t1,16(sp)
1c00817c:	ca1e                	sw	t2,20(sp)
1c00817e:	ce2e                	sw	a1,28(sp)
1c008180:	d032                	sw	a2,32(sp)
1c008182:	d236                	sw	a3,36(sp)
1c008184:	d43a                	sw	a4,40(sp)
1c008186:	d63e                	sw	a5,44(sp)
1c008188:	d842                	sw	a6,48(sp)
1c00818a:	da46                	sw	a7,52(sp)
1c00818c:	dc72                	sw	t3,56(sp)
1c00818e:	de76                	sw	t4,60(sp)
1c008190:	c0fa                	sw	t5,64(sp)
1c008192:	c6fe                	sw	t6,76(sp)
1c008194:	000500e7          	jalr	a0
1c008198:	4082                	lw	ra,0(sp)
1c00819a:	4192                	lw	gp,4(sp)
1c00819c:	4222                	lw	tp,8(sp)
1c00819e:	42b2                	lw	t0,12(sp)
1c0081a0:	4342                	lw	t1,16(sp)
1c0081a2:	43d2                	lw	t2,20(sp)
1c0081a4:	45f2                	lw	a1,28(sp)
1c0081a6:	5602                	lw	a2,32(sp)
1c0081a8:	5692                	lw	a3,36(sp)
1c0081aa:	5722                	lw	a4,40(sp)
1c0081ac:	57b2                	lw	a5,44(sp)
1c0081ae:	5842                	lw	a6,48(sp)
1c0081b0:	58d2                	lw	a7,52(sp)
1c0081b2:	5e62                	lw	t3,56(sp)
1c0081b4:	5ef2                	lw	t4,60(sp)
1c0081b6:	4f06                	lw	t5,64(sp)
1c0081b8:	4fb6                	lw	t6,76(sp)
1c0081ba:	6109                	addi	sp,sp,128
1c0081bc:	8082                	ret

1c0081be <__rt_fc_socevents_handler>:
1c0081be:	7119                	addi	sp,sp,-128
1c0081c0:	c022                	sw	s0,0(sp)
1c0081c2:	c226                	sw	s1,4(sp)
1c0081c4:	c42a                	sw	a0,8(sp)
1c0081c6:	c62e                	sw	a1,12(sp)
1c0081c8:	c832                	sw	a2,16(sp)
1c0081ca:	1a10a437          	lui	s0,0x1a10a
1c0081ce:	80040413          	addi	s0,s0,-2048 # 1a109800 <__rt_iodev_uart_baudrate+0x1a070e98>
1c0081d2:	5048                	lw	a0,36(s0)
1c0081d4:	44d9                	li	s1,22
1c0081d6:	00955463          	ble	s1,a0,1c0081de <__rt_fc_socevents_handler+0x20>
1c0081da:	0300006f          	j	1c00820a <udma_event_handler>
1c0081de:	ffff9497          	auipc	s1,0xffff9
1c0081e2:	cfe48493          	addi	s1,s1,-770 # 1c000edc <__rt_socevents_status>
1c0081e6:	02000593          	li	a1,32
1c0081ea:	00b54463          	blt	a0,a1,1c0081f2 <socevents_set>
1c0081ee:	0491                	addi	s1,s1,4
1c0081f0:	1501                	addi	a0,a0,-32

1c0081f2 <socevents_set>:
1c0081f2:	408c                	lw	a1,0(s1)
1c0081f4:	80a5c633          	p.bsetr	a2,a1,a0
1c0081f8:	c090                	sw	a2,0(s1)

1c0081fa <udma_event_handler_end>:
1c0081fa:	4402                	lw	s0,0(sp)
1c0081fc:	4492                	lw	s1,4(sp)
1c0081fe:	4522                	lw	a0,8(sp)
1c008200:	45b2                	lw	a1,12(sp)
1c008202:	4642                	lw	a2,16(sp)
1c008204:	6109                	addi	sp,sp,128
1c008206:	30200073          	mret

1c00820a <udma_event_handler>:
1c00820a:	44e1                	li	s1,24
1c00820c:	02a484b3          	mul	s1,s1,a0
1c008210:	e3ff8417          	auipc	s0,0xe3ff8
1c008214:	e1c40413          	addi	s0,s0,-484 # 2c <periph_channels>
1c008218:	94a2                	add	s1,s1,s0
1c00821a:	4080                	lw	s0,0(s1)
1c00821c:	448c                	lw	a1,8(s1)
1c00821e:	04040c63          	beqz	s0,1c008276 <__rt_udma_no_copy>
1c008222:	02841603          	lh	a2,40(s0)
1c008226:	4848                	lw	a0,20(s0)
1c008228:	04061563          	bnez	a2,1c008272 <dmaCmd>
1c00822c:	c088                	sw	a0,0(s1)
1c00822e:	4448                	lw	a0,12(s0)
1c008230:	ed39                	bnez	a0,1c00828e <handle_special_end>

1c008232 <resume_after_special_end>:
1c008232:	02058563          	beqz	a1,1c00825c <checkTask>
1c008236:	4990                	lw	a2,16(a1)
1c008238:	49c8                	lw	a0,20(a1)
1c00823a:	e27d                	bnez	a2,1c008320 <__rt_udma_call_enqueue_callback>

1c00823c <__rt_udma_call_enqueue_callback_resume>:
1c00823c:	44d0                	lw	a2,12(s1)
1c00823e:	c488                	sw	a0,8(s1)
1c008240:	4188                	lw	a0,0(a1)
1c008242:	41c4                	lw	s1,4(a1)
1c008244:	c208                	sw	a0,0(a2)
1c008246:	c244                	sw	s1,4(a2)
1c008248:	45c4                	lw	s1,12(a1)
1c00824a:	4515                	li	a0,5
1c00824c:	00a4c663          	blt	s1,a0,1c008258 <dual>
1c008250:	0064a463          	p.beqimm	s1,6,1c008258 <dual>
1c008254:	0074a263          	p.beqimm	s1,7,1c008258 <dual>

1c008258 <dual>:
1c008258:	4588                	lw	a0,8(a1)
1c00825a:	c608                	sw	a0,8(a2)

1c00825c <checkTask>:
1c00825c:	4c0c                	lw	a1,24(s0)
1c00825e:	00000497          	auipc	s1,0x0
1c008262:	f9c48493          	addi	s1,s1,-100 # 1c0081fa <udma_event_handler_end>
1c008266:	00058463          	beqz	a1,1c00826e <checkTask+0x12>
1c00826a:	0c00006f          	j	1c00832a <__rt_event_enqueue>
1c00826e:	f8dff06f          	j	1c0081fa <udma_event_handler_end>

1c008272 <dmaCmd>:
1c008272:	f89ff06f          	j	1c0081fa <udma_event_handler_end>

1c008276 <__rt_udma_no_copy>:
1c008276:	ffff9497          	auipc	s1,0xffff9
1c00827a:	c6648493          	addi	s1,s1,-922 # 1c000edc <__rt_socevents_status>
1c00827e:	4080                	lw	s0,0(s1)
1c008280:	4585                	li	a1,1
1c008282:	00a59533          	sll	a0,a1,a0
1c008286:	8c49                	or	s0,s0,a0
1c008288:	c080                	sw	s0,0(s1)
1c00828a:	f71ff06f          	j	1c0081fa <udma_event_handler_end>

1c00828e <handle_special_end>:
1c00828e:	00152963          	p.beqimm	a0,1,1c0082a0 <spim_step1>
1c008292:	02252563          	p.beqimm	a0,2,1c0082bc <spim_step2>
1c008296:	04352563          	p.beqimm	a0,3,1c0082e0 <i2c_step1>
1c00829a:	06452163          	p.beqimm	a0,4,1c0082fc <i2c_step2>
1c00829e:	bf51                	j	1c008232 <resume_after_special_end>

1c0082a0 <spim_step1>:
1c0082a0:	5008                	lw	a0,32(s0)
1c0082a2:	c448                	sw	a0,12(s0)
1c0082a4:	4088                	lw	a0,0(s1)
1c0082a6:	c848                	sw	a0,20(s0)
1c0082a8:	c080                	sw	s0,0(s1)
1c0082aa:	44d0                	lw	a2,12(s1)
1c0082ac:	5048                	lw	a0,36(s0)
1c0082ae:	c208                	sw	a0,0(a2)
1c0082b0:	4c48                	lw	a0,28(s0)
1c0082b2:	c248                	sw	a0,4(a2)
1c0082b4:	4408                	lw	a0,8(s0)
1c0082b6:	c608                	sw	a0,8(a2)
1c0082b8:	f43ff06f          	j	1c0081fa <udma_event_handler_end>

1c0082bc <spim_step2>:
1c0082bc:	00042623          	sw	zero,12(s0)
1c0082c0:	4088                	lw	a0,0(s1)
1c0082c2:	c848                	sw	a0,20(s0)
1c0082c4:	c080                	sw	s0,0(s1)
1c0082c6:	90000637          	lui	a2,0x90000
1c0082ca:	d450                	sw	a2,44(s0)
1c0082cc:	44d0                	lw	a2,12(s1)
1c0082ce:	02c40513          	addi	a0,s0,44
1c0082d2:	c208                	sw	a0,0(a2)
1c0082d4:	4511                	li	a0,4
1c0082d6:	c248                	sw	a0,4(a2)
1c0082d8:	4541                	li	a0,16
1c0082da:	c608                	sw	a0,8(a2)
1c0082dc:	f1fff06f          	j	1c0081fa <udma_event_handler_end>

1c0082e0 <i2c_step1>:
1c0082e0:	5008                	lw	a0,32(s0)
1c0082e2:	c448                	sw	a0,12(s0)
1c0082e4:	4088                	lw	a0,0(s1)
1c0082e6:	c848                	sw	a0,20(s0)
1c0082e8:	c080                	sw	s0,0(s1)
1c0082ea:	44d0                	lw	a2,12(s1)
1c0082ec:	4008                	lw	a0,0(s0)
1c0082ee:	c208                	sw	a0,0(a2)
1c0082f0:	4c48                	lw	a0,28(s0)
1c0082f2:	c248                	sw	a0,4(a2)
1c0082f4:	4408                	lw	a0,8(s0)
1c0082f6:	c608                	sw	a0,8(a2)
1c0082f8:	f03ff06f          	j	1c0081fa <udma_event_handler_end>

1c0082fc <i2c_step2>:
1c0082fc:	00042623          	sw	zero,12(s0)
1c008300:	4088                	lw	a0,0(s1)
1c008302:	c848                	sw	a0,20(s0)
1c008304:	c080                	sw	s0,0(s1)
1c008306:	02000613          	li	a2,32
1c00830a:	d450                	sw	a2,44(s0)
1c00830c:	44d0                	lw	a2,12(s1)
1c00830e:	02c40513          	addi	a0,s0,44
1c008312:	c208                	sw	a0,0(a2)
1c008314:	4505                	li	a0,1
1c008316:	c248                	sw	a0,4(a2)
1c008318:	4541                	li	a0,16
1c00831a:	c608                	sw	a0,8(a2)
1c00831c:	edfff06f          	j	1c0081fa <udma_event_handler_end>

1c008320 <__rt_udma_call_enqueue_callback>:
1c008320:	00000497          	auipc	s1,0x0
1c008324:	f1c48493          	addi	s1,s1,-228 # 1c00823c <__rt_udma_call_enqueue_callback_resume>
1c008328:	8602                	jr	a2

1c00832a <__rt_event_enqueue>:
1c00832a:	0035f513          	andi	a0,a1,3
1c00832e:	02051963          	bnez	a0,1c008360 <__rt_handle_special_event>
1c008332:	45c8                	lw	a0,12(a1)
1c008334:	0005a423          	sw	zero,8(a1)
1c008338:	4110                	lw	a2,0(a0)
1c00833a:	c601                	beqz	a2,1c008342 <__rt_no_first>
1c00833c:	4150                	lw	a2,4(a0)
1c00833e:	c60c                	sw	a1,8(a2)
1c008340:	a011                	j	1c008344 <__rt_common>

1c008342 <__rt_no_first>:
1c008342:	c10c                	sw	a1,0(a0)

1c008344 <__rt_common>:
1c008344:	c14c                	sw	a1,4(a0)
1c008346:	4550                	lw	a2,12(a0)
1c008348:	00052623          	sw	zero,12(a0)
1c00834c:	ca01                	beqz	a2,1c00835c <enqueue_end>
1c00834e:	e3ff8517          	auipc	a0,0xe3ff8
1c008352:	cbe50513          	addi	a0,a0,-834 # c <__rt_thread_current>
1c008356:	4108                	lw	a0,0(a0)
1c008358:	00c51363          	bne	a0,a2,1c00835e <thread_enqueue>

1c00835c <enqueue_end>:
1c00835c:	8482                	jr	s1

1c00835e <thread_enqueue>:
1c00835e:	8482                	jr	s1

1c008360 <__rt_handle_special_event>:
1c008360:	5571                	li	a0,-4
1c008362:	8de9                	and	a1,a1,a0
1c008364:	4190                	lw	a2,0(a1)
1c008366:	41c8                	lw	a0,4(a1)
1c008368:	a82d                	j	1c0083a2 <__rt_call_external_c_function>

1c00836a <__rt_bridge_enqueue_event>:
1c00836a:	fe812e23          	sw	s0,-4(sp)
1c00836e:	fe912c23          	sw	s1,-8(sp)
1c008372:	fea12a23          	sw	a0,-12(sp)
1c008376:	feb12823          	sw	a1,-16(sp)
1c00837a:	fec12623          	sw	a2,-20(sp)
1c00837e:	00001617          	auipc	a2,0x1
1c008382:	17060613          	addi	a2,a2,368 # 1c0094ee <__rt_bridge_handle_notif>
1c008386:	01c004ef          	jal	s1,1c0083a2 <__rt_call_external_c_function>
1c00838a:	ffc12403          	lw	s0,-4(sp)
1c00838e:	ff812483          	lw	s1,-8(sp)
1c008392:	ff412503          	lw	a0,-12(sp)
1c008396:	ff012583          	lw	a1,-16(sp)
1c00839a:	fec12603          	lw	a2,-20(sp)
1c00839e:	30200073          	mret

1c0083a2 <__rt_call_external_c_function>:
1c0083a2:	7119                	addi	sp,sp,-128
1c0083a4:	c006                	sw	ra,0(sp)
1c0083a6:	c20e                	sw	gp,4(sp)
1c0083a8:	c412                	sw	tp,8(sp)
1c0083aa:	c616                	sw	t0,12(sp)
1c0083ac:	c81a                	sw	t1,16(sp)
1c0083ae:	ca1e                	sw	t2,20(sp)
1c0083b0:	d236                	sw	a3,36(sp)
1c0083b2:	d43a                	sw	a4,40(sp)
1c0083b4:	d63e                	sw	a5,44(sp)
1c0083b6:	d842                	sw	a6,48(sp)
1c0083b8:	da46                	sw	a7,52(sp)
1c0083ba:	dc72                	sw	t3,56(sp)
1c0083bc:	de76                	sw	t4,60(sp)
1c0083be:	c0fa                	sw	t5,64(sp)
1c0083c0:	c6fe                	sw	t6,76(sp)
1c0083c2:	000600e7          	jalr	a2
1c0083c6:	4082                	lw	ra,0(sp)
1c0083c8:	4192                	lw	gp,4(sp)
1c0083ca:	4222                	lw	tp,8(sp)
1c0083cc:	42b2                	lw	t0,12(sp)
1c0083ce:	4342                	lw	t1,16(sp)
1c0083d0:	43d2                	lw	t2,20(sp)
1c0083d2:	5692                	lw	a3,36(sp)
1c0083d4:	5722                	lw	a4,40(sp)
1c0083d6:	57b2                	lw	a5,44(sp)
1c0083d8:	5842                	lw	a6,48(sp)
1c0083da:	58d2                	lw	a7,52(sp)
1c0083dc:	5e62                	lw	t3,56(sp)
1c0083de:	5ef2                	lw	t4,60(sp)
1c0083e0:	4f06                	lw	t5,64(sp)
1c0083e2:	4fb6                	lw	t6,76(sp)
1c0083e4:	6109                	addi	sp,sp,128
1c0083e6:	8482                	jr	s1

1c0083e8 <__udivdi3>:
1c0083e8:	87ae                	mv	a5,a1
1c0083ea:	8832                	mv	a6,a2
1c0083ec:	88b6                	mv	a7,a3
1c0083ee:	832a                	mv	t1,a0
1c0083f0:	20069663          	bnez	a3,1c0085fc <__udivdi3+0x214>
1c0083f4:	1c000737          	lui	a4,0x1c000
1c0083f8:	21870713          	addi	a4,a4,536 # 1c000218 <__DTOR_END__>
1c0083fc:	0ac5fe63          	bleu	a2,a1,1c0084b8 <__udivdi3+0xd0>
1c008400:	66c1                	lui	a3,0x10
1c008402:	0ad67463          	bleu	a3,a2,1c0084aa <__udivdi3+0xc2>
1c008406:	0ff00693          	li	a3,255
1c00840a:	00c6b6b3          	sltu	a3,a3,a2
1c00840e:	068e                	slli	a3,a3,0x3
1c008410:	00d658b3          	srl	a7,a2,a3
1c008414:	9746                	add	a4,a4,a7
1c008416:	00074703          	lbu	a4,0(a4)
1c00841a:	96ba                	add	a3,a3,a4
1c00841c:	02000713          	li	a4,32
1c008420:	8f15                	sub	a4,a4,a3
1c008422:	cb19                	beqz	a4,1c008438 <__udivdi3+0x50>
1c008424:	00e797b3          	sll	a5,a5,a4
1c008428:	00d556b3          	srl	a3,a0,a3
1c00842c:	00e61833          	sll	a6,a2,a4
1c008430:	00f6e5b3          	or	a1,a3,a5
1c008434:	00e51333          	sll	t1,a0,a4
1c008438:	01085513          	srli	a0,a6,0x10
1c00843c:	02a5d7b3          	divu	a5,a1,a0
1c008440:	01081613          	slli	a2,a6,0x10
1c008444:	8241                	srli	a2,a2,0x10
1c008446:	01035693          	srli	a3,t1,0x10
1c00844a:	02a5f733          	remu	a4,a1,a0
1c00844e:	02f605b3          	mul	a1,a2,a5
1c008452:	0742                	slli	a4,a4,0x10
1c008454:	8ed9                	or	a3,a3,a4
1c008456:	873e                	mv	a4,a5
1c008458:	00b6fc63          	bleu	a1,a3,1c008470 <__udivdi3+0x88>
1c00845c:	96c2                	add	a3,a3,a6
1c00845e:	fff78713          	addi	a4,a5,-1
1c008462:	0106e763          	bltu	a3,a6,1c008470 <__udivdi3+0x88>
1c008466:	00b6f563          	bleu	a1,a3,1c008470 <__udivdi3+0x88>
1c00846a:	ffe78713          	addi	a4,a5,-2
1c00846e:	96c2                	add	a3,a3,a6
1c008470:	8e8d                	sub	a3,a3,a1
1c008472:	02a6f7b3          	remu	a5,a3,a0
1c008476:	0342                	slli	t1,t1,0x10
1c008478:	01035313          	srli	t1,t1,0x10
1c00847c:	02a6d6b3          	divu	a3,a3,a0
1c008480:	07c2                	slli	a5,a5,0x10
1c008482:	0067e333          	or	t1,a5,t1
1c008486:	02d605b3          	mul	a1,a2,a3
1c00848a:	8536                	mv	a0,a3
1c00848c:	00b37b63          	bleu	a1,t1,1c0084a2 <__udivdi3+0xba>
1c008490:	9342                	add	t1,t1,a6
1c008492:	fff68513          	addi	a0,a3,-1 # ffff <__l2_priv0_heap_size+0x8eef>
1c008496:	01036663          	bltu	t1,a6,1c0084a2 <__udivdi3+0xba>
1c00849a:	00b37463          	bleu	a1,t1,1c0084a2 <__udivdi3+0xba>
1c00849e:	ffe68513          	addi	a0,a3,-2
1c0084a2:	0742                	slli	a4,a4,0x10
1c0084a4:	8f49                	or	a4,a4,a0
1c0084a6:	4581                	li	a1,0
1c0084a8:	a84d                	j	1c00855a <__udivdi3+0x172>
1c0084aa:	010008b7          	lui	a7,0x1000
1c0084ae:	46c1                	li	a3,16
1c0084b0:	f71660e3          	bltu	a2,a7,1c008410 <__udivdi3+0x28>
1c0084b4:	46e1                	li	a3,24
1c0084b6:	bfa9                	j	1c008410 <__udivdi3+0x28>
1c0084b8:	e601                	bnez	a2,1c0084c0 <__udivdi3+0xd8>
1c0084ba:	4685                	li	a3,1
1c0084bc:	02c6d833          	divu	a6,a3,a2
1c0084c0:	66c1                	lui	a3,0x10
1c0084c2:	08d87e63          	bleu	a3,a6,1c00855e <__udivdi3+0x176>
1c0084c6:	0ff00693          	li	a3,255
1c0084ca:	0106f363          	bleu	a6,a3,1c0084d0 <__udivdi3+0xe8>
1c0084ce:	48a1                	li	a7,8
1c0084d0:	011856b3          	srl	a3,a6,a7
1c0084d4:	9736                	add	a4,a4,a3
1c0084d6:	00074683          	lbu	a3,0(a4)
1c0084da:	02000713          	li	a4,32
1c0084de:	96c6                	add	a3,a3,a7
1c0084e0:	8f15                	sub	a4,a4,a3
1c0084e2:	e749                	bnez	a4,1c00856c <__udivdi3+0x184>
1c0084e4:	410787b3          	sub	a5,a5,a6
1c0084e8:	4585                	li	a1,1
1c0084ea:	01085613          	srli	a2,a6,0x10
1c0084ee:	01081893          	slli	a7,a6,0x10
1c0084f2:	0108d893          	srli	a7,a7,0x10
1c0084f6:	01035693          	srli	a3,t1,0x10
1c0084fa:	02c7f733          	remu	a4,a5,a2
1c0084fe:	02c7d7b3          	divu	a5,a5,a2
1c008502:	0742                	slli	a4,a4,0x10
1c008504:	8ed9                	or	a3,a3,a4
1c008506:	02f88533          	mul	a0,a7,a5
1c00850a:	873e                	mv	a4,a5
1c00850c:	00a6fc63          	bleu	a0,a3,1c008524 <__udivdi3+0x13c>
1c008510:	96c2                	add	a3,a3,a6
1c008512:	fff78713          	addi	a4,a5,-1
1c008516:	0106e763          	bltu	a3,a6,1c008524 <__udivdi3+0x13c>
1c00851a:	00a6f563          	bleu	a0,a3,1c008524 <__udivdi3+0x13c>
1c00851e:	ffe78713          	addi	a4,a5,-2
1c008522:	96c2                	add	a3,a3,a6
1c008524:	8e89                	sub	a3,a3,a0
1c008526:	02c6f7b3          	remu	a5,a3,a2
1c00852a:	0342                	slli	t1,t1,0x10
1c00852c:	01035313          	srli	t1,t1,0x10
1c008530:	02c6d6b3          	divu	a3,a3,a2
1c008534:	07c2                	slli	a5,a5,0x10
1c008536:	0067e333          	or	t1,a5,t1
1c00853a:	02d888b3          	mul	a7,a7,a3
1c00853e:	8536                	mv	a0,a3
1c008540:	01137b63          	bleu	a7,t1,1c008556 <__udivdi3+0x16e>
1c008544:	9342                	add	t1,t1,a6
1c008546:	fff68513          	addi	a0,a3,-1 # ffff <__l2_priv0_heap_size+0x8eef>
1c00854a:	01036663          	bltu	t1,a6,1c008556 <__udivdi3+0x16e>
1c00854e:	01137463          	bleu	a7,t1,1c008556 <__udivdi3+0x16e>
1c008552:	ffe68513          	addi	a0,a3,-2
1c008556:	0742                	slli	a4,a4,0x10
1c008558:	8f49                	or	a4,a4,a0
1c00855a:	853a                	mv	a0,a4
1c00855c:	8082                	ret
1c00855e:	010006b7          	lui	a3,0x1000
1c008562:	48c1                	li	a7,16
1c008564:	f6d866e3          	bltu	a6,a3,1c0084d0 <__udivdi3+0xe8>
1c008568:	48e1                	li	a7,24
1c00856a:	b79d                	j	1c0084d0 <__udivdi3+0xe8>
1c00856c:	00e81833          	sll	a6,a6,a4
1c008570:	00d7d5b3          	srl	a1,a5,a3
1c008574:	00e51333          	sll	t1,a0,a4
1c008578:	00d556b3          	srl	a3,a0,a3
1c00857c:	01085513          	srli	a0,a6,0x10
1c008580:	00e797b3          	sll	a5,a5,a4
1c008584:	02a5f733          	remu	a4,a1,a0
1c008588:	00f6e8b3          	or	a7,a3,a5
1c00858c:	01081793          	slli	a5,a6,0x10
1c008590:	83c1                	srli	a5,a5,0x10
1c008592:	0108d613          	srli	a2,a7,0x10
1c008596:	02a5d5b3          	divu	a1,a1,a0
1c00859a:	0742                	slli	a4,a4,0x10
1c00859c:	8f51                	or	a4,a4,a2
1c00859e:	02b786b3          	mul	a3,a5,a1
1c0085a2:	862e                	mv	a2,a1
1c0085a4:	00d77c63          	bleu	a3,a4,1c0085bc <__udivdi3+0x1d4>
1c0085a8:	9742                	add	a4,a4,a6
1c0085aa:	fff58613          	addi	a2,a1,-1
1c0085ae:	01076763          	bltu	a4,a6,1c0085bc <__udivdi3+0x1d4>
1c0085b2:	00d77563          	bleu	a3,a4,1c0085bc <__udivdi3+0x1d4>
1c0085b6:	ffe58613          	addi	a2,a1,-2
1c0085ba:	9742                	add	a4,a4,a6
1c0085bc:	40d706b3          	sub	a3,a4,a3
1c0085c0:	02a6f733          	remu	a4,a3,a0
1c0085c4:	08c2                	slli	a7,a7,0x10
1c0085c6:	0108d893          	srli	a7,a7,0x10
1c0085ca:	02a6d6b3          	divu	a3,a3,a0
1c0085ce:	0742                	slli	a4,a4,0x10
1c0085d0:	02d785b3          	mul	a1,a5,a3
1c0085d4:	011767b3          	or	a5,a4,a7
1c0085d8:	8736                	mv	a4,a3
1c0085da:	00b7fc63          	bleu	a1,a5,1c0085f2 <__udivdi3+0x20a>
1c0085de:	97c2                	add	a5,a5,a6
1c0085e0:	fff68713          	addi	a4,a3,-1 # ffffff <__rt_iodev_uart_baudrate+0xf67697>
1c0085e4:	0107e763          	bltu	a5,a6,1c0085f2 <__udivdi3+0x20a>
1c0085e8:	00b7f563          	bleu	a1,a5,1c0085f2 <__udivdi3+0x20a>
1c0085ec:	ffe68713          	addi	a4,a3,-2
1c0085f0:	97c2                	add	a5,a5,a6
1c0085f2:	8f8d                	sub	a5,a5,a1
1c0085f4:	01061593          	slli	a1,a2,0x10
1c0085f8:	8dd9                	or	a1,a1,a4
1c0085fa:	bdc5                	j	1c0084ea <__udivdi3+0x102>
1c0085fc:	14d5e263          	bltu	a1,a3,1c008740 <__udivdi3+0x358>
1c008600:	6741                	lui	a4,0x10
1c008602:	02e6fe63          	bleu	a4,a3,1c00863e <__udivdi3+0x256>
1c008606:	0ff00813          	li	a6,255
1c00860a:	00d83733          	sltu	a4,a6,a3
1c00860e:	070e                	slli	a4,a4,0x3
1c008610:	1c000837          	lui	a6,0x1c000
1c008614:	21880813          	addi	a6,a6,536 # 1c000218 <__DTOR_END__>
1c008618:	00e6d5b3          	srl	a1,a3,a4
1c00861c:	95c2                	add	a1,a1,a6
1c00861e:	0005c803          	lbu	a6,0(a1)
1c008622:	02000593          	li	a1,32
1c008626:	983a                	add	a6,a6,a4
1c008628:	410585b3          	sub	a1,a1,a6
1c00862c:	e185                	bnez	a1,1c00864c <__udivdi3+0x264>
1c00862e:	4705                	li	a4,1
1c008630:	f2f6e5e3          	bltu	a3,a5,1c00855a <__udivdi3+0x172>
1c008634:	00c53533          	sltu	a0,a0,a2
1c008638:	00154713          	xori	a4,a0,1
1c00863c:	bf39                	j	1c00855a <__udivdi3+0x172>
1c00863e:	010005b7          	lui	a1,0x1000
1c008642:	4741                	li	a4,16
1c008644:	fcb6e6e3          	bltu	a3,a1,1c008610 <__udivdi3+0x228>
1c008648:	4761                	li	a4,24
1c00864a:	b7d9                	j	1c008610 <__udivdi3+0x228>
1c00864c:	01065733          	srl	a4,a2,a6
1c008650:	00b696b3          	sll	a3,a3,a1
1c008654:	8ed9                	or	a3,a3,a4
1c008656:	0106de93          	srli	t4,a3,0x10
1c00865a:	0107d733          	srl	a4,a5,a6
1c00865e:	03d778b3          	remu	a7,a4,t4
1c008662:	00b797b3          	sll	a5,a5,a1
1c008666:	01055833          	srl	a6,a0,a6
1c00866a:	00f86333          	or	t1,a6,a5
1c00866e:	01069793          	slli	a5,a3,0x10
1c008672:	83c1                	srli	a5,a5,0x10
1c008674:	01035813          	srli	a6,t1,0x10
1c008678:	00b61633          	sll	a2,a2,a1
1c00867c:	03d75733          	divu	a4,a4,t4
1c008680:	08c2                	slli	a7,a7,0x10
1c008682:	0108e833          	or	a6,a7,a6
1c008686:	02e78f33          	mul	t5,a5,a4
1c00868a:	8e3a                	mv	t3,a4
1c00868c:	01e87c63          	bleu	t5,a6,1c0086a4 <__udivdi3+0x2bc>
1c008690:	9836                	add	a6,a6,a3
1c008692:	fff70e13          	addi	t3,a4,-1 # ffff <__l2_priv0_heap_size+0x8eef>
1c008696:	00d86763          	bltu	a6,a3,1c0086a4 <__udivdi3+0x2bc>
1c00869a:	01e87563          	bleu	t5,a6,1c0086a4 <__udivdi3+0x2bc>
1c00869e:	ffe70e13          	addi	t3,a4,-2
1c0086a2:	9836                	add	a6,a6,a3
1c0086a4:	41e80833          	sub	a6,a6,t5
1c0086a8:	03d878b3          	remu	a7,a6,t4
1c0086ac:	03d85833          	divu	a6,a6,t4
1c0086b0:	08c2                	slli	a7,a7,0x10
1c0086b2:	03078eb3          	mul	t4,a5,a6
1c0086b6:	01031793          	slli	a5,t1,0x10
1c0086ba:	83c1                	srli	a5,a5,0x10
1c0086bc:	00f8e7b3          	or	a5,a7,a5
1c0086c0:	8742                	mv	a4,a6
1c0086c2:	01d7fc63          	bleu	t4,a5,1c0086da <__udivdi3+0x2f2>
1c0086c6:	97b6                	add	a5,a5,a3
1c0086c8:	fff80713          	addi	a4,a6,-1
1c0086cc:	00d7e763          	bltu	a5,a3,1c0086da <__udivdi3+0x2f2>
1c0086d0:	01d7f563          	bleu	t4,a5,1c0086da <__udivdi3+0x2f2>
1c0086d4:	ffe80713          	addi	a4,a6,-2
1c0086d8:	97b6                	add	a5,a5,a3
1c0086da:	0e42                	slli	t3,t3,0x10
1c0086dc:	41d787b3          	sub	a5,a5,t4
1c0086e0:	6ec1                	lui	t4,0x10
1c0086e2:	00ee6733          	or	a4,t3,a4
1c0086e6:	fffe8813          	addi	a6,t4,-1 # ffff <__l2_priv0_heap_size+0x8eef>
1c0086ea:	01077333          	and	t1,a4,a6
1c0086ee:	01075893          	srli	a7,a4,0x10
1c0086f2:	01067833          	and	a6,a2,a6
1c0086f6:	8241                	srli	a2,a2,0x10
1c0086f8:	03030e33          	mul	t3,t1,a6
1c0086fc:	03088833          	mul	a6,a7,a6
1c008700:	010e5693          	srli	a3,t3,0x10
1c008704:	02c30333          	mul	t1,t1,a2
1c008708:	9342                	add	t1,t1,a6
1c00870a:	969a                	add	a3,a3,t1
1c00870c:	02c888b3          	mul	a7,a7,a2
1c008710:	0106f363          	bleu	a6,a3,1c008716 <__udivdi3+0x32e>
1c008714:	98f6                	add	a7,a7,t4
1c008716:	0106d613          	srli	a2,a3,0x10
1c00871a:	98b2                	add	a7,a7,a2
1c00871c:	0317e063          	bltu	a5,a7,1c00873c <__udivdi3+0x354>
1c008720:	d91793e3          	bne	a5,a7,1c0084a6 <__udivdi3+0xbe>
1c008724:	67c1                	lui	a5,0x10
1c008726:	17fd                	addi	a5,a5,-1
1c008728:	8efd                	and	a3,a3,a5
1c00872a:	06c2                	slli	a3,a3,0x10
1c00872c:	00fe7e33          	and	t3,t3,a5
1c008730:	00b51533          	sll	a0,a0,a1
1c008734:	96f2                	add	a3,a3,t3
1c008736:	4581                	li	a1,0
1c008738:	e2d571e3          	bleu	a3,a0,1c00855a <__udivdi3+0x172>
1c00873c:	177d                	addi	a4,a4,-1
1c00873e:	b3a5                	j	1c0084a6 <__udivdi3+0xbe>
1c008740:	4581                	li	a1,0
1c008742:	4701                	li	a4,0
1c008744:	bd19                	j	1c00855a <__udivdi3+0x172>

1c008746 <__umoddi3>:
1c008746:	88b2                	mv	a7,a2
1c008748:	8736                	mv	a4,a3
1c00874a:	87aa                	mv	a5,a0
1c00874c:	882e                	mv	a6,a1
1c00874e:	1c069863          	bnez	a3,1c00891e <__umoddi3+0x1d8>
1c008752:	1c0006b7          	lui	a3,0x1c000
1c008756:	21868693          	addi	a3,a3,536 # 1c000218 <__DTOR_END__>
1c00875a:	0ac5f863          	bleu	a2,a1,1c00880a <__umoddi3+0xc4>
1c00875e:	6341                	lui	t1,0x10
1c008760:	08667e63          	bleu	t1,a2,1c0087fc <__umoddi3+0xb6>
1c008764:	0ff00313          	li	t1,255
1c008768:	00c37363          	bleu	a2,t1,1c00876e <__umoddi3+0x28>
1c00876c:	4721                	li	a4,8
1c00876e:	00e65333          	srl	t1,a2,a4
1c008772:	969a                	add	a3,a3,t1
1c008774:	0006ce03          	lbu	t3,0(a3)
1c008778:	02000313          	li	t1,32
1c00877c:	9e3a                	add	t3,t3,a4
1c00877e:	41c30333          	sub	t1,t1,t3
1c008782:	00030c63          	beqz	t1,1c00879a <__umoddi3+0x54>
1c008786:	006595b3          	sll	a1,a1,t1
1c00878a:	01c55e33          	srl	t3,a0,t3
1c00878e:	006618b3          	sll	a7,a2,t1
1c008792:	00be6833          	or	a6,t3,a1
1c008796:	006517b3          	sll	a5,a0,t1
1c00879a:	0108d613          	srli	a2,a7,0x10
1c00879e:	02c87733          	remu	a4,a6,a2
1c0087a2:	01089513          	slli	a0,a7,0x10
1c0087a6:	8141                	srli	a0,a0,0x10
1c0087a8:	0107d693          	srli	a3,a5,0x10
1c0087ac:	02c85833          	divu	a6,a6,a2
1c0087b0:	0742                	slli	a4,a4,0x10
1c0087b2:	8ed9                	or	a3,a3,a4
1c0087b4:	03050833          	mul	a6,a0,a6
1c0087b8:	0106f863          	bleu	a6,a3,1c0087c8 <__umoddi3+0x82>
1c0087bc:	96c6                	add	a3,a3,a7
1c0087be:	0116e563          	bltu	a3,a7,1c0087c8 <__umoddi3+0x82>
1c0087c2:	0106f363          	bleu	a6,a3,1c0087c8 <__umoddi3+0x82>
1c0087c6:	96c6                	add	a3,a3,a7
1c0087c8:	410686b3          	sub	a3,a3,a6
1c0087cc:	02c6f733          	remu	a4,a3,a2
1c0087d0:	07c2                	slli	a5,a5,0x10
1c0087d2:	83c1                	srli	a5,a5,0x10
1c0087d4:	02c6d6b3          	divu	a3,a3,a2
1c0087d8:	02d506b3          	mul	a3,a0,a3
1c0087dc:	01071513          	slli	a0,a4,0x10
1c0087e0:	8fc9                	or	a5,a5,a0
1c0087e2:	00d7f863          	bleu	a3,a5,1c0087f2 <__umoddi3+0xac>
1c0087e6:	97c6                	add	a5,a5,a7
1c0087e8:	0117e563          	bltu	a5,a7,1c0087f2 <__umoddi3+0xac>
1c0087ec:	00d7f363          	bleu	a3,a5,1c0087f2 <__umoddi3+0xac>
1c0087f0:	97c6                	add	a5,a5,a7
1c0087f2:	8f95                	sub	a5,a5,a3
1c0087f4:	0067d533          	srl	a0,a5,t1
1c0087f8:	4581                	li	a1,0
1c0087fa:	8082                	ret
1c0087fc:	01000337          	lui	t1,0x1000
1c008800:	4741                	li	a4,16
1c008802:	f66666e3          	bltu	a2,t1,1c00876e <__umoddi3+0x28>
1c008806:	4761                	li	a4,24
1c008808:	b79d                	j	1c00876e <__umoddi3+0x28>
1c00880a:	e601                	bnez	a2,1c008812 <__umoddi3+0xcc>
1c00880c:	4605                	li	a2,1
1c00880e:	031658b3          	divu	a7,a2,a7
1c008812:	6641                	lui	a2,0x10
1c008814:	08c8f363          	bleu	a2,a7,1c00889a <__umoddi3+0x154>
1c008818:	0ff00613          	li	a2,255
1c00881c:	01167363          	bleu	a7,a2,1c008822 <__umoddi3+0xdc>
1c008820:	4721                	li	a4,8
1c008822:	00e8d633          	srl	a2,a7,a4
1c008826:	96b2                	add	a3,a3,a2
1c008828:	0006ce03          	lbu	t3,0(a3)
1c00882c:	02000313          	li	t1,32
1c008830:	9e3a                	add	t3,t3,a4
1c008832:	41c30333          	sub	t1,t1,t3
1c008836:	06031963          	bnez	t1,1c0088a8 <__umoddi3+0x162>
1c00883a:	411585b3          	sub	a1,a1,a7
1c00883e:	0108d713          	srli	a4,a7,0x10
1c008842:	01089513          	slli	a0,a7,0x10
1c008846:	8141                	srli	a0,a0,0x10
1c008848:	0107d613          	srli	a2,a5,0x10
1c00884c:	02e5f6b3          	remu	a3,a1,a4
1c008850:	02e5d5b3          	divu	a1,a1,a4
1c008854:	06c2                	slli	a3,a3,0x10
1c008856:	8ed1                	or	a3,a3,a2
1c008858:	02b505b3          	mul	a1,a0,a1
1c00885c:	00b6f863          	bleu	a1,a3,1c00886c <__umoddi3+0x126>
1c008860:	96c6                	add	a3,a3,a7
1c008862:	0116e563          	bltu	a3,a7,1c00886c <__umoddi3+0x126>
1c008866:	00b6f363          	bleu	a1,a3,1c00886c <__umoddi3+0x126>
1c00886a:	96c6                	add	a3,a3,a7
1c00886c:	40b685b3          	sub	a1,a3,a1
1c008870:	02e5f6b3          	remu	a3,a1,a4
1c008874:	07c2                	slli	a5,a5,0x10
1c008876:	83c1                	srli	a5,a5,0x10
1c008878:	02e5d5b3          	divu	a1,a1,a4
1c00887c:	02b505b3          	mul	a1,a0,a1
1c008880:	01069513          	slli	a0,a3,0x10
1c008884:	8fc9                	or	a5,a5,a0
1c008886:	00b7f863          	bleu	a1,a5,1c008896 <__umoddi3+0x150>
1c00888a:	97c6                	add	a5,a5,a7
1c00888c:	0117e563          	bltu	a5,a7,1c008896 <__umoddi3+0x150>
1c008890:	00b7f363          	bleu	a1,a5,1c008896 <__umoddi3+0x150>
1c008894:	97c6                	add	a5,a5,a7
1c008896:	8f8d                	sub	a5,a5,a1
1c008898:	bfb1                	j	1c0087f4 <__umoddi3+0xae>
1c00889a:	01000637          	lui	a2,0x1000
1c00889e:	4741                	li	a4,16
1c0088a0:	f8c8e1e3          	bltu	a7,a2,1c008822 <__umoddi3+0xdc>
1c0088a4:	4761                	li	a4,24
1c0088a6:	bfb5                	j	1c008822 <__umoddi3+0xdc>
1c0088a8:	006898b3          	sll	a7,a7,t1
1c0088ac:	01c5d733          	srl	a4,a1,t3
1c0088b0:	006517b3          	sll	a5,a0,t1
1c0088b4:	01c55e33          	srl	t3,a0,t3
1c0088b8:	0108d513          	srli	a0,a7,0x10
1c0088bc:	02a776b3          	remu	a3,a4,a0
1c0088c0:	006595b3          	sll	a1,a1,t1
1c0088c4:	00be6e33          	or	t3,t3,a1
1c0088c8:	01089593          	slli	a1,a7,0x10
1c0088cc:	81c1                	srli	a1,a1,0x10
1c0088ce:	010e5613          	srli	a2,t3,0x10
1c0088d2:	02a75733          	divu	a4,a4,a0
1c0088d6:	06c2                	slli	a3,a3,0x10
1c0088d8:	8ed1                	or	a3,a3,a2
1c0088da:	02e58733          	mul	a4,a1,a4
1c0088de:	00e6f863          	bleu	a4,a3,1c0088ee <__umoddi3+0x1a8>
1c0088e2:	96c6                	add	a3,a3,a7
1c0088e4:	0116e563          	bltu	a3,a7,1c0088ee <__umoddi3+0x1a8>
1c0088e8:	00e6f363          	bleu	a4,a3,1c0088ee <__umoddi3+0x1a8>
1c0088ec:	96c6                	add	a3,a3,a7
1c0088ee:	40e68633          	sub	a2,a3,a4
1c0088f2:	02a676b3          	remu	a3,a2,a0
1c0088f6:	0e42                	slli	t3,t3,0x10
1c0088f8:	010e5e13          	srli	t3,t3,0x10
1c0088fc:	02a65633          	divu	a2,a2,a0
1c008900:	06c2                	slli	a3,a3,0x10
1c008902:	02c58633          	mul	a2,a1,a2
1c008906:	01c6e5b3          	or	a1,a3,t3
1c00890a:	00c5f863          	bleu	a2,a1,1c00891a <__umoddi3+0x1d4>
1c00890e:	95c6                	add	a1,a1,a7
1c008910:	0115e563          	bltu	a1,a7,1c00891a <__umoddi3+0x1d4>
1c008914:	00c5f363          	bleu	a2,a1,1c00891a <__umoddi3+0x1d4>
1c008918:	95c6                	add	a1,a1,a7
1c00891a:	8d91                	sub	a1,a1,a2
1c00891c:	b70d                	j	1c00883e <__umoddi3+0xf8>
1c00891e:	ecd5eee3          	bltu	a1,a3,1c0087fa <__umoddi3+0xb4>
1c008922:	6741                	lui	a4,0x10
1c008924:	04e6f563          	bleu	a4,a3,1c00896e <__umoddi3+0x228>
1c008928:	0ff00e93          	li	t4,255
1c00892c:	00deb733          	sltu	a4,t4,a3
1c008930:	070e                	slli	a4,a4,0x3
1c008932:	1c000337          	lui	t1,0x1c000
1c008936:	00e6d8b3          	srl	a7,a3,a4
1c00893a:	21830313          	addi	t1,t1,536 # 1c000218 <__DTOR_END__>
1c00893e:	989a                	add	a7,a7,t1
1c008940:	0008ce83          	lbu	t4,0(a7) # 1000000 <__rt_iodev_uart_baudrate+0xf67698>
1c008944:	02000e13          	li	t3,32
1c008948:	9eba                	add	t4,t4,a4
1c00894a:	41de0e33          	sub	t3,t3,t4
1c00894e:	020e1763          	bnez	t3,1c00897c <__umoddi3+0x236>
1c008952:	00b6e463          	bltu	a3,a1,1c00895a <__umoddi3+0x214>
1c008956:	00c56963          	bltu	a0,a2,1c008968 <__umoddi3+0x222>
1c00895a:	40c507b3          	sub	a5,a0,a2
1c00895e:	8d95                	sub	a1,a1,a3
1c008960:	00f53533          	sltu	a0,a0,a5
1c008964:	40a58833          	sub	a6,a1,a0
1c008968:	853e                	mv	a0,a5
1c00896a:	85c2                	mv	a1,a6
1c00896c:	b579                	j	1c0087fa <__umoddi3+0xb4>
1c00896e:	010008b7          	lui	a7,0x1000
1c008972:	4741                	li	a4,16
1c008974:	fb16efe3          	bltu	a3,a7,1c008932 <__umoddi3+0x1ec>
1c008978:	4761                	li	a4,24
1c00897a:	bf65                	j	1c008932 <__umoddi3+0x1ec>
1c00897c:	01d65733          	srl	a4,a2,t4
1c008980:	01c696b3          	sll	a3,a3,t3
1c008984:	8ed9                	or	a3,a3,a4
1c008986:	01d557b3          	srl	a5,a0,t4
1c00898a:	01d5d733          	srl	a4,a1,t4
1c00898e:	01c595b3          	sll	a1,a1,t3
1c008992:	8fcd                	or	a5,a5,a1
1c008994:	0106d593          	srli	a1,a3,0x10
1c008998:	02b77333          	remu	t1,a4,a1
1c00899c:	01069f13          	slli	t5,a3,0x10
1c0089a0:	010f5f13          	srli	t5,t5,0x10
1c0089a4:	0107d893          	srli	a7,a5,0x10
1c0089a8:	01c61633          	sll	a2,a2,t3
1c0089ac:	01c51533          	sll	a0,a0,t3
1c0089b0:	02b75733          	divu	a4,a4,a1
1c0089b4:	0342                	slli	t1,t1,0x10
1c0089b6:	011368b3          	or	a7,t1,a7
1c0089ba:	02ef0833          	mul	a6,t5,a4
1c0089be:	833a                	mv	t1,a4
1c0089c0:	0108fc63          	bleu	a6,a7,1c0089d8 <__umoddi3+0x292>
1c0089c4:	98b6                	add	a7,a7,a3
1c0089c6:	fff70313          	addi	t1,a4,-1 # ffff <__l2_priv0_heap_size+0x8eef>
1c0089ca:	00d8e763          	bltu	a7,a3,1c0089d8 <__umoddi3+0x292>
1c0089ce:	0108f563          	bleu	a6,a7,1c0089d8 <__umoddi3+0x292>
1c0089d2:	ffe70313          	addi	t1,a4,-2
1c0089d6:	98b6                	add	a7,a7,a3
1c0089d8:	410888b3          	sub	a7,a7,a6
1c0089dc:	02b8ffb3          	remu	t6,a7,a1
1c0089e0:	02b8d8b3          	divu	a7,a7,a1
1c0089e4:	0fc2                	slli	t6,t6,0x10
1c0089e6:	031f05b3          	mul	a1,t5,a7
1c0089ea:	01079f13          	slli	t5,a5,0x10
1c0089ee:	010f5f13          	srli	t5,t5,0x10
1c0089f2:	01efef33          	or	t5,t6,t5
1c0089f6:	8746                	mv	a4,a7
1c0089f8:	00bf7c63          	bleu	a1,t5,1c008a10 <__umoddi3+0x2ca>
1c0089fc:	9f36                	add	t5,t5,a3
1c0089fe:	fff88713          	addi	a4,a7,-1 # ffffff <__rt_iodev_uart_baudrate+0xf67697>
1c008a02:	00df6763          	bltu	t5,a3,1c008a10 <__umoddi3+0x2ca>
1c008a06:	00bf7563          	bleu	a1,t5,1c008a10 <__umoddi3+0x2ca>
1c008a0a:	ffe88713          	addi	a4,a7,-2
1c008a0e:	9f36                	add	t5,t5,a3
1c008a10:	0342                	slli	t1,t1,0x10
1c008a12:	68c1                	lui	a7,0x10
1c008a14:	00e36333          	or	t1,t1,a4
1c008a18:	fff88793          	addi	a5,a7,-1 # ffff <__l2_priv0_heap_size+0x8eef>
1c008a1c:	01065813          	srli	a6,a2,0x10
1c008a20:	40bf0f33          	sub	t5,t5,a1
1c008a24:	00f375b3          	and	a1,t1,a5
1c008a28:	01035313          	srli	t1,t1,0x10
1c008a2c:	8ff1                	and	a5,a5,a2
1c008a2e:	02f58733          	mul	a4,a1,a5
1c008a32:	02f307b3          	mul	a5,t1,a5
1c008a36:	030585b3          	mul	a1,a1,a6
1c008a3a:	03030333          	mul	t1,t1,a6
1c008a3e:	95be                	add	a1,a1,a5
1c008a40:	01075813          	srli	a6,a4,0x10
1c008a44:	982e                	add	a6,a6,a1
1c008a46:	00f87363          	bleu	a5,a6,1c008a4c <__umoddi3+0x306>
1c008a4a:	9346                	add	t1,t1,a7
1c008a4c:	67c1                	lui	a5,0x10
1c008a4e:	17fd                	addi	a5,a5,-1
1c008a50:	01085593          	srli	a1,a6,0x10
1c008a54:	00f87833          	and	a6,a6,a5
1c008a58:	0842                	slli	a6,a6,0x10
1c008a5a:	8f7d                	and	a4,a4,a5
1c008a5c:	959a                	add	a1,a1,t1
1c008a5e:	9742                	add	a4,a4,a6
1c008a60:	00bf6663          	bltu	t5,a1,1c008a6c <__umoddi3+0x326>
1c008a64:	00bf1b63          	bne	t5,a1,1c008a7a <__umoddi3+0x334>
1c008a68:	00e57963          	bleu	a4,a0,1c008a7a <__umoddi3+0x334>
1c008a6c:	40c70633          	sub	a2,a4,a2
1c008a70:	00c73733          	sltu	a4,a4,a2
1c008a74:	8d95                	sub	a1,a1,a3
1c008a76:	8d99                	sub	a1,a1,a4
1c008a78:	8732                	mv	a4,a2
1c008a7a:	40e50733          	sub	a4,a0,a4
1c008a7e:	00e53533          	sltu	a0,a0,a4
1c008a82:	40bf05b3          	sub	a1,t5,a1
1c008a86:	8d89                	sub	a1,a1,a0
1c008a88:	01d597b3          	sll	a5,a1,t4
1c008a8c:	01c75733          	srl	a4,a4,t3
1c008a90:	00e7e533          	or	a0,a5,a4
1c008a94:	01c5d5b3          	srl	a1,a1,t3
1c008a98:	b38d                	j	1c0087fa <__umoddi3+0xb4>

1c008a9a <itcm_func_1>:
1c008a9a:	1c001737          	lui	a4,0x1c001
1c008a9e:	ec074783          	lbu	a5,-320(a4) # 1c000ec0 <dtcm_g_c_u_data_2>
1c008aa2:	0786                	slli	a5,a5,0x1
1c008aa4:	06578793          	addi	a5,a5,101 # 10065 <__L1Cl+0x65>
1c008aa8:	ecf70023          	sb	a5,-320(a4)
1c008aac:	8082                	ret

1c008aae <itcm_os_entry>:
1c008aae:	1c0017b7          	lui	a5,0x1c001
1c008ab2:	fac00713          	li	a4,-84
1c008ab6:	ece78023          	sb	a4,-320(a5) # 1c000ec0 <dtcm_g_c_u_data_2>
1c008aba:	b7c5                	j	1c008a9a <itcm_func_1>

1c008abc <main>:
1c008abc:	1141                	addi	sp,sp,-16
1c008abe:	c606                	sw	ra,12(sp)
1c008ac0:	37fd                	jal	1c008aae <itcm_os_entry>
1c008ac2:	40b2                	lw	ra,12(sp)
1c008ac4:	4501                	li	a0,0
1c008ac6:	0141                	addi	sp,sp,16
1c008ac8:	8082                	ret

1c008aca <__rt_init>:
1c008aca:	1141                	addi	sp,sp,-16
1c008acc:	1a1067b7          	lui	a5,0x1a106
1c008ad0:	00478693          	addi	a3,a5,4 # 1a106004 <__rt_iodev_uart_baudrate+0x1a06d69c>
1c008ad4:	c606                	sw	ra,12(sp)
1c008ad6:	577d                	li	a4,-1
1c008ad8:	c422                	sw	s0,8(sp)
1c008ada:	c298                	sw	a4,0(a3)
1c008adc:	07a1                	addi	a5,a5,8
1c008ade:	c398                	sw	a4,0(a5)
1c008ae0:	1c000437          	lui	s0,0x1c000
1c008ae4:	234d                	jal	1c009086 <__rt_freq_init>
1c008ae6:	1e440413          	addi	s0,s0,484 # 1c0001e4 <ctor_list+0x4>
1c008aea:	2a19                	jal	1c008c00 <__rt_irq_init>
1c008aec:	226d                	jal	1c008c96 <__rt_utils_init>
1c008aee:	2399                	jal	1c009034 <__rt_allocs_init>
1c008af0:	0044278b          	p.lw	a5,4(s0!)
1c008af4:	e3b1                	bnez	a5,1c008b38 <__rt_init+0x6e>
1c008af6:	1c0085b7          	lui	a1,0x1c008
1c008afa:	1be58593          	addi	a1,a1,446 # 1c0081be <__rt_fc_socevents_handler>
1c008afe:	4569                	li	a0,26
1c008b00:	20a5                	jal	1c008b68 <rt_irq_set_handler>
1c008b02:	1a10a7b7          	lui	a5,0x1a10a
1c008b06:	04000737          	lui	a4,0x4000
1c008b0a:	80e7a223          	sw	a4,-2044(a5) # 1a109804 <__rt_iodev_uart_baudrate+0x1a070e9c>
1c008b0e:	30045073          	csrwi	mstatus,8
1c008b12:	4501                	li	a0,0
1c008b14:	2a89                	jal	1c008c66 <__rt_cbsys_exec>
1c008b16:	c11d                	beqz	a0,1c008b3c <__rt_init+0x72>
1c008b18:	f1402673          	csrr	a2,mhartid
1c008b1c:	1c000537          	lui	a0,0x1c000
1c008b20:	40565593          	srai	a1,a2,0x5
1c008b24:	f265b5b3          	p.bclr	a1,a1,25,6
1c008b28:	f4563633          	p.bclr	a2,a2,26,5
1c008b2c:	31850513          	addi	a0,a0,792 # 1c000318 <__DTOR_END__+0x100>
1c008b30:	3f7000ef          	jal	ra,1c009726 <printf>
1c008b34:	451000ef          	jal	ra,1c009784 <abort>
1c008b38:	9782                	jalr	a5
1c008b3a:	bf5d                	j	1c008af0 <__rt_init+0x26>
1c008b3c:	40b2                	lw	ra,12(sp)
1c008b3e:	4422                	lw	s0,8(sp)
1c008b40:	0141                	addi	sp,sp,16
1c008b42:	8082                	ret

1c008b44 <__rt_deinit>:
1c008b44:	1141                	addi	sp,sp,-16
1c008b46:	c422                	sw	s0,8(sp)
1c008b48:	4505                	li	a0,1
1c008b4a:	1c000437          	lui	s0,0x1c000
1c008b4e:	c606                	sw	ra,12(sp)
1c008b50:	21440413          	addi	s0,s0,532 # 1c000214 <dtor_list+0x4>
1c008b54:	2a09                	jal	1c008c66 <__rt_cbsys_exec>
1c008b56:	0044278b          	p.lw	a5,4(s0!)
1c008b5a:	e789                	bnez	a5,1c008b64 <__rt_deinit+0x20>
1c008b5c:	40b2                	lw	ra,12(sp)
1c008b5e:	4422                	lw	s0,8(sp)
1c008b60:	0141                	addi	sp,sp,16
1c008b62:	8082                	ret
1c008b64:	9782                	jalr	a5
1c008b66:	bfc5                	j	1c008b56 <__rt_deinit+0x12>

1c008b68 <rt_irq_set_handler>:
1c008b68:	f14027f3          	csrr	a5,mhartid
1c008b6c:	46fd                	li	a3,31
1c008b6e:	ca5797b3          	p.extractu	a5,a5,5,5
1c008b72:	4701                	li	a4,0
1c008b74:	00d79563          	bne	a5,a3,1c008b7e <rt_irq_set_handler+0x16>
1c008b78:	1a1047b7          	lui	a5,0x1a104
1c008b7c:	43d8                	lw	a4,4(a5)
1c008b7e:	050a                	slli	a0,a0,0x2
1c008b80:	8d89                	sub	a1,a1,a0
1c008b82:	8d99                	sub	a1,a1,a4
1c008b84:	c14586b3          	p.extract	a3,a1,0,20
1c008b88:	06f00793          	li	a5,111
1c008b8c:	c1f6a7b3          	p.insert	a5,a3,0,31
1c008b90:	d21586b3          	p.extract	a3,a1,9,1
1c008b94:	d356a7b3          	p.insert	a5,a3,9,21
1c008b98:	c0b586b3          	p.extract	a3,a1,0,11
1c008b9c:	c146a7b3          	p.insert	a5,a3,0,20
1c008ba0:	cec585b3          	p.extract	a1,a1,7,12
1c008ba4:	cec5a7b3          	p.insert	a5,a1,7,12
1c008ba8:	00f56723          	p.sw	a5,a4(a0)
1c008bac:	8082                	ret

1c008bae <illegal_insn_handler_c>:
1c008bae:	8082                	ret

1c008bb0 <__rt_handle_illegal_instr>:
1c008bb0:	1c0017b7          	lui	a5,0x1c001
1c008bb4:	cb47a703          	lw	a4,-844(a5) # 1c000cb4 <__rt_debug_config>
1c008bb8:	1141                	addi	sp,sp,-16
1c008bba:	c422                	sw	s0,8(sp)
1c008bbc:	c606                	sw	ra,12(sp)
1c008bbe:	fc173733          	p.bclr	a4,a4,30,1
1c008bc2:	843e                	mv	s0,a5
1c008bc4:	c315                	beqz	a4,1c008be8 <__rt_handle_illegal_instr+0x38>
1c008bc6:	341026f3          	csrr	a3,mepc
1c008bca:	f1402673          	csrr	a2,mhartid
1c008bce:	1c000537          	lui	a0,0x1c000
1c008bd2:	4298                	lw	a4,0(a3)
1c008bd4:	40565593          	srai	a1,a2,0x5
1c008bd8:	f265b5b3          	p.bclr	a1,a1,25,6
1c008bdc:	f4563633          	p.bclr	a2,a2,26,5
1c008be0:	37050513          	addi	a0,a0,880 # 1c000370 <__DTOR_END__+0x158>
1c008be4:	343000ef          	jal	ra,1c009726 <printf>
1c008be8:	cb442783          	lw	a5,-844(s0)
1c008bec:	c01797b3          	p.extractu	a5,a5,0,1
1c008bf0:	c399                	beqz	a5,1c008bf6 <__rt_handle_illegal_instr+0x46>
1c008bf2:	393000ef          	jal	ra,1c009784 <abort>
1c008bf6:	4422                	lw	s0,8(sp)
1c008bf8:	40b2                	lw	ra,12(sp)
1c008bfa:	0141                	addi	sp,sp,16
1c008bfc:	fb3ff06f          	j	1c008bae <illegal_insn_handler_c>

1c008c00 <__rt_irq_init>:
1c008c00:	1a10a7b7          	lui	a5,0x1a10a
1c008c04:	577d                	li	a4,-1
1c008c06:	80e7a423          	sw	a4,-2040(a5) # 1a109808 <__rt_iodev_uart_baudrate+0x1a070ea0>
1c008c0a:	f14027f3          	csrr	a5,mhartid
1c008c0e:	477d                	li	a4,31
1c008c10:	ca5797b3          	p.extractu	a5,a5,5,5
1c008c14:	00e79963          	bne	a5,a4,1c008c26 <__rt_irq_init+0x26>
1c008c18:	1c0087b7          	lui	a5,0x1c008
1c008c1c:	1a104737          	lui	a4,0x1a104
1c008c20:	00078793          	mv	a5,a5
1c008c24:	c35c                	sw	a5,4(a4)
1c008c26:	8082                	ret

1c008c28 <__rt_cbsys_add>:
1c008c28:	1101                	addi	sp,sp,-32
1c008c2a:	cc22                	sw	s0,24(sp)
1c008c2c:	ca26                	sw	s1,20(sp)
1c008c2e:	842a                	mv	s0,a0
1c008c30:	84ae                	mv	s1,a1
1c008c32:	4501                	li	a0,0
1c008c34:	45b1                	li	a1,12
1c008c36:	c632                	sw	a2,12(sp)
1c008c38:	ce06                	sw	ra,28(sp)
1c008c3a:	2e6d                	jal	1c008ff4 <rt_alloc>
1c008c3c:	4632                	lw	a2,12(sp)
1c008c3e:	c115                	beqz	a0,1c008c62 <__rt_cbsys_add+0x3a>
1c008c40:	1c0017b7          	lui	a5,0x1c001
1c008c44:	040a                	slli	s0,s0,0x2
1c008c46:	cb878793          	addi	a5,a5,-840 # 1c000cb8 <cbsys_first>
1c008c4a:	97a2                	add	a5,a5,s0
1c008c4c:	4398                	lw	a4,0(a5)
1c008c4e:	c104                	sw	s1,0(a0)
1c008c50:	c150                	sw	a2,4(a0)
1c008c52:	c518                	sw	a4,8(a0)
1c008c54:	c388                	sw	a0,0(a5)
1c008c56:	4501                	li	a0,0
1c008c58:	40f2                	lw	ra,28(sp)
1c008c5a:	4462                	lw	s0,24(sp)
1c008c5c:	44d2                	lw	s1,20(sp)
1c008c5e:	6105                	addi	sp,sp,32
1c008c60:	8082                	ret
1c008c62:	557d                	li	a0,-1
1c008c64:	bfd5                	j	1c008c58 <__rt_cbsys_add+0x30>

1c008c66 <__rt_cbsys_exec>:
1c008c66:	1141                	addi	sp,sp,-16
1c008c68:	c422                	sw	s0,8(sp)
1c008c6a:	1c001437          	lui	s0,0x1c001
1c008c6e:	050a                	slli	a0,a0,0x2
1c008c70:	cb840413          	addi	s0,s0,-840 # 1c000cb8 <cbsys_first>
1c008c74:	20a47403          	p.lw	s0,a0(s0)
1c008c78:	c606                	sw	ra,12(sp)
1c008c7a:	e411                	bnez	s0,1c008c86 <__rt_cbsys_exec+0x20>
1c008c7c:	4501                	li	a0,0
1c008c7e:	40b2                	lw	ra,12(sp)
1c008c80:	4422                	lw	s0,8(sp)
1c008c82:	0141                	addi	sp,sp,16
1c008c84:	8082                	ret
1c008c86:	401c                	lw	a5,0(s0)
1c008c88:	4048                	lw	a0,4(s0)
1c008c8a:	9782                	jalr	a5
1c008c8c:	e119                	bnez	a0,1c008c92 <__rt_cbsys_exec+0x2c>
1c008c8e:	4400                	lw	s0,8(s0)
1c008c90:	b7ed                	j	1c008c7a <__rt_cbsys_exec+0x14>
1c008c92:	557d                	li	a0,-1
1c008c94:	b7ed                	j	1c008c7e <__rt_cbsys_exec+0x18>

1c008c96 <__rt_utils_init>:
1c008c96:	1c0017b7          	lui	a5,0x1c001
1c008c9a:	cb878793          	addi	a5,a5,-840 # 1c000cb8 <cbsys_first>
1c008c9e:	0007a023          	sw	zero,0(a5)
1c008ca2:	0007a223          	sw	zero,4(a5)
1c008ca6:	0007a423          	sw	zero,8(a5)
1c008caa:	0007a623          	sw	zero,12(a5)
1c008cae:	0007a823          	sw	zero,16(a5)
1c008cb2:	0007aa23          	sw	zero,20(a5)
1c008cb6:	8082                	ret

1c008cb8 <__rt_fc_lock>:
1c008cb8:	1141                	addi	sp,sp,-16
1c008cba:	c422                	sw	s0,8(sp)
1c008cbc:	842a                	mv	s0,a0
1c008cbe:	c606                	sw	ra,12(sp)
1c008cc0:	c226                	sw	s1,4(sp)
1c008cc2:	c04a                	sw	s2,0(sp)
1c008cc4:	300474f3          	csrrci	s1,mstatus,8
1c008cc8:	401c                	lw	a5,0(s0)
1c008cca:	eb99                	bnez	a5,1c008ce0 <__rt_fc_lock+0x28>
1c008ccc:	4785                	li	a5,1
1c008cce:	c01c                	sw	a5,0(s0)
1c008cd0:	30049073          	csrw	mstatus,s1
1c008cd4:	40b2                	lw	ra,12(sp)
1c008cd6:	4422                	lw	s0,8(sp)
1c008cd8:	4492                	lw	s1,4(sp)
1c008cda:	4902                	lw	s2,0(sp)
1c008cdc:	0141                	addi	sp,sp,16
1c008cde:	8082                	ret
1c008ce0:	00c02783          	lw	a5,12(zero) # c <__rt_thread_current>
1c008ce4:	4585                	li	a1,1
1c008ce6:	0a07a503          	lw	a0,160(a5)
1c008cea:	c45c                	sw	a5,12(s0)
1c008cec:	2ae9                	jal	1c008ec6 <__rt_event_execute>
1c008cee:	bfe9                	j	1c008cc8 <__rt_fc_lock+0x10>

1c008cf0 <__rt_fc_unlock>:
1c008cf0:	300477f3          	csrrci	a5,mstatus,8
1c008cf4:	00052023          	sw	zero,0(a0)
1c008cf8:	30079073          	csrw	mstatus,a5
1c008cfc:	8082                	ret

1c008cfe <__rt_thread_enqueue_ready>:
1c008cfe:	00402703          	lw	a4,4(zero) # 4 <_l1FcShared_end>
1c008d02:	02052c23          	sw	zero,56(a0)
1c008d06:	00400793          	li	a5,4
1c008d0a:	e711                	bnez	a4,1c008d16 <__rt_thread_enqueue_ready+0x18>
1c008d0c:	c388                	sw	a0,0(a5)
1c008d0e:	c3c8                	sw	a0,4(a5)
1c008d10:	0a052223          	sw	zero,164(a0)
1c008d14:	8082                	ret
1c008d16:	43d8                	lw	a4,4(a5)
1c008d18:	df08                	sw	a0,56(a4)
1c008d1a:	bfd5                	j	1c008d0e <__rt_thread_enqueue_ready+0x10>

1c008d1c <__rt_thread_sleep>:
1c008d1c:	00400713          	li	a4,4
1c008d20:	4708                	lw	a0,8(a4)
1c008d22:	00400793          	li	a5,4
1c008d26:	438c                	lw	a1,0(a5)
1c008d28:	c999                	beqz	a1,1c008d3e <__rt_thread_sleep+0x22>
1c008d2a:	5d98                	lw	a4,56(a1)
1c008d2c:	c398                	sw	a4,0(a5)
1c008d2e:	4705                	li	a4,1
1c008d30:	0ae5a223          	sw	a4,164(a1)
1c008d34:	00b50c63          	beq	a0,a1,1c008d4c <__rt_thread_sleep+0x30>
1c008d38:	c78c                	sw	a1,8(a5)
1c008d3a:	bacff06f          	j	1c0080e6 <__rt_thread_switch>
1c008d3e:	10500073          	wfi
1c008d42:	30045073          	csrwi	mstatus,8
1c008d46:	30047773          	csrrci	a4,mstatus,8
1c008d4a:	bff1                	j	1c008d26 <__rt_thread_sleep+0xa>
1c008d4c:	8082                	ret

1c008d4e <rt_thread_exit>:
1c008d4e:	300477f3          	csrrci	a5,mstatus,8
1c008d52:	00c02783          	lw	a5,12(zero) # c <__rt_thread_current>
1c008d56:	4705                	li	a4,1
1c008d58:	c3e8                	sw	a0,68(a5)
1c008d5a:	5fc8                	lw	a0,60(a5)
1c008d5c:	c3b8                	sw	a4,64(a5)
1c008d5e:	c909                	beqz	a0,1c008d70 <rt_thread_exit+0x22>
1c008d60:	0a452783          	lw	a5,164(a0)
1c008d64:	c791                	beqz	a5,1c008d70 <rt_thread_exit+0x22>
1c008d66:	1141                	addi	sp,sp,-16
1c008d68:	c606                	sw	ra,12(sp)
1c008d6a:	3f51                	jal	1c008cfe <__rt_thread_enqueue_ready>
1c008d6c:	40b2                	lw	ra,12(sp)
1c008d6e:	0141                	addi	sp,sp,16
1c008d70:	b775                	j	1c008d1c <__rt_thread_sleep>

1c008d72 <__rt_thread_sched_init>:
1c008d72:	1141                	addi	sp,sp,-16
1c008d74:	c422                	sw	s0,8(sp)
1c008d76:	1c0087b7          	lui	a5,0x1c008
1c008d7a:	1c001437          	lui	s0,0x1c001
1c008d7e:	c226                	sw	s1,4(sp)
1c008d80:	c04a                	sw	s2,0(sp)
1c008d82:	c606                	sw	ra,12(sp)
1c008d84:	cd040413          	addi	s0,s0,-816 # 1c000cd0 <__rt_thread_main>
1c008d88:	0e078793          	addi	a5,a5,224 # 1c0080e0 <__rt_thread_start>
1c008d8c:	c01c                	sw	a5,0(s0)
1c008d8e:	1c0097b7          	lui	a5,0x1c009
1c008d92:	d4e78793          	addi	a5,a5,-690 # 1c008d4e <rt_thread_exit>
1c008d96:	04840913          	addi	s2,s0,72
1c008d9a:	c45c                	sw	a5,12(s0)
1c008d9c:	e3ff7797          	auipc	a5,0xe3ff7
1c008da0:	27878793          	addi	a5,a5,632 # 14 <__rt_sched>
1c008da4:	00400493          	li	s1,4
1c008da8:	0af42023          	sw	a5,160(s0)
1c008dac:	854a                	mv	a0,s2
1c008dae:	4785                	li	a5,1
1c008db0:	e3ff7597          	auipc	a1,0xe3ff7
1c008db4:	26458593          	addi	a1,a1,612 # 14 <__rt_sched>
1c008db8:	0af42223          	sw	a5,164(s0)
1c008dbc:	0004a023          	sw	zero,0(s1)
1c008dc0:	02042a23          	sw	zero,52(s0)
1c008dc4:	00042223          	sw	zero,4(s0)
1c008dc8:	00042423          	sw	zero,8(s0)
1c008dcc:	283d                	jal	1c008e0a <__rt_event_init>
1c008dce:	01002783          	lw	a5,16(zero) # 10 <__rt_first_free>
1c008dd2:	c480                	sw	s0,8(s1)
1c008dd4:	40b2                	lw	ra,12(sp)
1c008dd6:	c83c                	sw	a5,80(s0)
1c008dd8:	4422                	lw	s0,8(sp)
1c008dda:	01202823          	sw	s2,16(zero) # 10 <__rt_first_free>
1c008dde:	4492                	lw	s1,4(sp)
1c008de0:	4902                	lw	s2,0(sp)
1c008de2:	0141                	addi	sp,sp,16
1c008de4:	8082                	ret

1c008de6 <__rt_thread_enqueue_ready_check>:
1c008de6:	0a452783          	lw	a5,164(a0)
1c008dea:	cf81                	beqz	a5,1c008e02 <__rt_thread_enqueue_ready_check+0x1c>
1c008dec:	00402703          	lw	a4,4(zero) # 4 <_l1FcShared_end>
1c008df0:	02052c23          	sw	zero,56(a0)
1c008df4:	00400793          	li	a5,4
1c008df8:	e711                	bnez	a4,1c008e04 <__rt_thread_enqueue_ready_check+0x1e>
1c008dfa:	c388                	sw	a0,0(a5)
1c008dfc:	c3c8                	sw	a0,4(a5)
1c008dfe:	0a052223          	sw	zero,164(a0)
1c008e02:	8082                	ret
1c008e04:	43d8                	lw	a4,4(a5)
1c008e06:	df08                	sw	a0,56(a4)
1c008e08:	bfd5                	j	1c008dfc <__rt_thread_enqueue_ready_check+0x16>

1c008e0a <__rt_event_init>:
1c008e0a:	00052823          	sw	zero,16(a0)
1c008e0e:	00052a23          	sw	zero,20(a0)
1c008e12:	c54c                	sw	a1,12(a0)
1c008e14:	00052023          	sw	zero,0(a0)
1c008e18:	8082                	ret

1c008e1a <__rt_wait_event_prepare_blocking>:
1c008e1a:	01000793          	li	a5,16
1c008e1e:	4388                	lw	a0,0(a5)
1c008e20:	4518                	lw	a4,8(a0)
1c008e22:	00052823          	sw	zero,16(a0)
1c008e26:	00e7a22b          	p.sw	a4,4(a5!)
1c008e2a:	4705                	li	a4,1
1c008e2c:	c958                	sw	a4,20(a0)
1c008e2e:	c55c                	sw	a5,12(a0)
1c008e30:	00052023          	sw	zero,0(a0)
1c008e34:	8082                	ret

1c008e36 <rt_event_alloc>:
1c008e36:	1141                	addi	sp,sp,-16
1c008e38:	c226                	sw	s1,4(sp)
1c008e3a:	84ae                	mv	s1,a1
1c008e3c:	c606                	sw	ra,12(sp)
1c008e3e:	c422                	sw	s0,8(sp)
1c008e40:	c04a                	sw	s2,0(sp)
1c008e42:	30047973          	csrrci	s2,mstatus,8
1c008e46:	842a                	mv	s0,a0
1c008e48:	e509                	bnez	a0,1c008e52 <rt_event_alloc+0x1c>
1c008e4a:	00c02783          	lw	a5,12(zero) # c <__rt_thread_current>
1c008e4e:	0a07a403          	lw	s0,160(a5)
1c008e52:	f14027f3          	csrr	a5,mhartid
1c008e56:	8795                	srai	a5,a5,0x5
1c008e58:	f267b7b3          	p.bclr	a5,a5,25,6
1c008e5c:	477d                	li	a4,31
1c008e5e:	4501                	li	a0,0
1c008e60:	00e78463          	beq	a5,a4,1c008e68 <rt_event_alloc+0x32>
1c008e64:	00378513          	addi	a0,a5,3
1c008e68:	05800593          	li	a1,88
1c008e6c:	02b485b3          	mul	a1,s1,a1
1c008e70:	2251                	jal	1c008ff4 <rt_alloc>
1c008e72:	87aa                	mv	a5,a0
1c008e74:	557d                	li	a0,-1
1c008e76:	cf91                	beqz	a5,1c008e92 <rt_event_alloc+0x5c>
1c008e78:	01002683          	lw	a3,16(zero) # 10 <__rt_first_free>
1c008e7c:	4581                	li	a1,0
1c008e7e:	4601                	li	a2,0
1c008e80:	01000713          	li	a4,16
1c008e84:	00964d63          	blt	a2,s1,1c008e9e <rt_event_alloc+0x68>
1c008e88:	c191                	beqz	a1,1c008e8c <rt_event_alloc+0x56>
1c008e8a:	c314                	sw	a3,0(a4)
1c008e8c:	30091073          	csrw	mstatus,s2
1c008e90:	4501                	li	a0,0
1c008e92:	40b2                	lw	ra,12(sp)
1c008e94:	4422                	lw	s0,8(sp)
1c008e96:	4492                	lw	s1,4(sp)
1c008e98:	4902                	lw	s2,0(sp)
1c008e9a:	0141                	addi	sp,sp,16
1c008e9c:	8082                	ret
1c008e9e:	c794                	sw	a3,8(a5)
1c008ea0:	0007a823          	sw	zero,16(a5)
1c008ea4:	0007aa23          	sw	zero,20(a5)
1c008ea8:	c7c0                	sw	s0,12(a5)
1c008eaa:	0007a023          	sw	zero,0(a5)
1c008eae:	86be                	mv	a3,a5
1c008eb0:	0605                	addi	a2,a2,1
1c008eb2:	4585                	li	a1,1
1c008eb4:	05878793          	addi	a5,a5,88
1c008eb8:	b7f1                	j	1c008e84 <rt_event_alloc+0x4e>

1c008eba <__rt_event_unblock>:
1c008eba:	00052a23          	sw	zero,20(a0)
1c008ebe:	4908                	lw	a0,16(a0)
1c008ec0:	c111                	beqz	a0,1c008ec4 <__rt_event_unblock+0xa>
1c008ec2:	b715                	j	1c008de6 <__rt_thread_enqueue_ready_check>
1c008ec4:	8082                	ret

1c008ec6 <__rt_event_execute>:
1c008ec6:	1101                	addi	sp,sp,-32
1c008ec8:	cc22                	sw	s0,24(sp)
1c008eca:	ce06                	sw	ra,28(sp)
1c008ecc:	ca26                	sw	s1,20(sp)
1c008ece:	c84a                	sw	s2,16(sp)
1c008ed0:	c64e                	sw	s3,12(sp)
1c008ed2:	842a                	mv	s0,a0
1c008ed4:	e509                	bnez	a0,1c008ede <__rt_event_execute+0x18>
1c008ed6:	00c02783          	lw	a5,12(zero) # c <__rt_thread_current>
1c008eda:	0a07a403          	lw	s0,160(a5)
1c008ede:	4008                	lw	a0,0(s0)
1c008ee0:	e919                	bnez	a0,1c008ef6 <__rt_event_execute+0x30>
1c008ee2:	c1a1                	beqz	a1,1c008f22 <__rt_event_execute+0x5c>
1c008ee4:	00c02783          	lw	a5,12(zero) # c <__rt_thread_current>
1c008ee8:	c45c                	sw	a5,12(s0)
1c008eea:	00402783          	lw	a5,4(zero) # 4 <_l1FcShared_end>
1c008eee:	c3a9                	beqz	a5,1c008f30 <__rt_event_execute+0x6a>
1c008ef0:	3535                	jal	1c008d1c <__rt_thread_sleep>
1c008ef2:	4008                	lw	a0,0(s0)
1c008ef4:	c51d                	beqz	a0,1c008f22 <__rt_event_execute+0x5c>
1c008ef6:	451c                	lw	a5,8(a0)
1c008ef8:	4104                	lw	s1,0(a0)
1c008efa:	00452983          	lw	s3,4(a0)
1c008efe:	c01c                	sw	a5,0(s0)
1c008f00:	495c                	lw	a5,20(a0)
1c008f02:	e791                	bnez	a5,1c008f0e <__rt_event_execute+0x48>
1c008f04:	01000793          	li	a5,16
1c008f08:	4398                	lw	a4,0(a5)
1c008f0a:	c388                	sw	a0,0(a5)
1c008f0c:	c518                	sw	a4,8(a0)
1c008f0e:	3775                	jal	1c008eba <__rt_event_unblock>
1c008f10:	c499                	beqz	s1,1c008f1e <__rt_event_execute+0x58>
1c008f12:	30045073          	csrwi	mstatus,8
1c008f16:	854e                	mv	a0,s3
1c008f18:	9482                	jalr	s1
1c008f1a:	300477f3          	csrrci	a5,mstatus,8
1c008f1e:	4008                	lw	a0,0(s0)
1c008f20:	f979                	bnez	a0,1c008ef6 <__rt_event_execute+0x30>
1c008f22:	40f2                	lw	ra,28(sp)
1c008f24:	4462                	lw	s0,24(sp)
1c008f26:	44d2                	lw	s1,20(sp)
1c008f28:	4942                	lw	s2,16(sp)
1c008f2a:	49b2                	lw	s3,12(sp)
1c008f2c:	6105                	addi	sp,sp,32
1c008f2e:	8082                	ret
1c008f30:	10500073          	wfi
1c008f34:	30045073          	csrwi	mstatus,8
1c008f38:	300477f3          	csrrci	a5,mstatus,8
1c008f3c:	bf5d                	j	1c008ef2 <__rt_event_execute+0x2c>

1c008f3e <__rt_wait_event>:
1c008f3e:	1141                	addi	sp,sp,-16
1c008f40:	c422                	sw	s0,8(sp)
1c008f42:	c226                	sw	s1,4(sp)
1c008f44:	c606                	sw	ra,12(sp)
1c008f46:	842a                	mv	s0,a0
1c008f48:	485c                	lw	a5,20(s0)
1c008f4a:	ef89                	bnez	a5,1c008f64 <__rt_wait_event+0x26>
1c008f4c:	445c                	lw	a5,12(s0)
1c008f4e:	c791                	beqz	a5,1c008f5a <__rt_wait_event+0x1c>
1c008f50:	01000793          	li	a5,16
1c008f54:	4398                	lw	a4,0(a5)
1c008f56:	c380                	sw	s0,0(a5)
1c008f58:	c418                	sw	a4,8(s0)
1c008f5a:	40b2                	lw	ra,12(sp)
1c008f5c:	4422                	lw	s0,8(sp)
1c008f5e:	4492                	lw	s1,4(sp)
1c008f60:	0141                	addi	sp,sp,16
1c008f62:	8082                	ret
1c008f64:	00c02783          	lw	a5,12(zero) # c <__rt_thread_current>
1c008f68:	4585                	li	a1,1
1c008f6a:	0a07a503          	lw	a0,160(a5)
1c008f6e:	c81c                	sw	a5,16(s0)
1c008f70:	3f99                	jal	1c008ec6 <__rt_event_execute>
1c008f72:	bfd9                	j	1c008f48 <__rt_wait_event+0xa>

1c008f74 <rt_event_wait>:
1c008f74:	1141                	addi	sp,sp,-16
1c008f76:	c606                	sw	ra,12(sp)
1c008f78:	c422                	sw	s0,8(sp)
1c008f7a:	30047473          	csrrci	s0,mstatus,8
1c008f7e:	37c1                	jal	1c008f3e <__rt_wait_event>
1c008f80:	30041073          	csrw	mstatus,s0
1c008f84:	40b2                	lw	ra,12(sp)
1c008f86:	4422                	lw	s0,8(sp)
1c008f88:	0141                	addi	sp,sp,16
1c008f8a:	8082                	ret

1c008f8c <__rt_event_sched_init>:
1c008f8c:	01000513          	li	a0,16
1c008f90:	00052023          	sw	zero,0(a0)
1c008f94:	00052223          	sw	zero,4(a0)
1c008f98:	00052823          	sw	zero,16(a0)
1c008f9c:	4585                	li	a1,1
1c008f9e:	0511                	addi	a0,a0,4
1c008fa0:	bd59                	j	1c008e36 <rt_event_alloc>

1c008fa2 <rt_user_alloc_init>:
1c008fa2:	00758793          	addi	a5,a1,7
1c008fa6:	c407b7b3          	p.bclr	a5,a5,2,0
1c008faa:	40b785b3          	sub	a1,a5,a1
1c008fae:	c11c                	sw	a5,0(a0)
1c008fb0:	8e0d                	sub	a2,a2,a1
1c008fb2:	00c05763          	blez	a2,1c008fc0 <rt_user_alloc_init+0x1e>
1c008fb6:	c4063633          	p.bclr	a2,a2,2,0
1c008fba:	c390                	sw	a2,0(a5)
1c008fbc:	0007a223          	sw	zero,4(a5)
1c008fc0:	8082                	ret

1c008fc2 <rt_user_alloc>:
1c008fc2:	411c                	lw	a5,0(a0)
1c008fc4:	059d                	addi	a1,a1,7
1c008fc6:	c405b5b3          	p.bclr	a1,a1,2,0
1c008fca:	4681                	li	a3,0
1c008fcc:	cb89                	beqz	a5,1c008fde <rt_user_alloc+0x1c>
1c008fce:	4398                	lw	a4,0(a5)
1c008fd0:	00b74963          	blt	a4,a1,1c008fe2 <rt_user_alloc+0x20>
1c008fd4:	00b71c63          	bne	a4,a1,1c008fec <rt_user_alloc+0x2a>
1c008fd8:	43d8                	lw	a4,4(a5)
1c008fda:	c699                	beqz	a3,1c008fe8 <rt_user_alloc+0x26>
1c008fdc:	c2d8                	sw	a4,4(a3)
1c008fde:	853e                	mv	a0,a5
1c008fe0:	8082                	ret
1c008fe2:	86be                	mv	a3,a5
1c008fe4:	43dc                	lw	a5,4(a5)
1c008fe6:	b7dd                	j	1c008fcc <rt_user_alloc+0xa>
1c008fe8:	c118                	sw	a4,0(a0)
1c008fea:	bfd5                	j	1c008fde <rt_user_alloc+0x1c>
1c008fec:	8f0d                	sub	a4,a4,a1
1c008fee:	c398                	sw	a4,0(a5)
1c008ff0:	97ba                	add	a5,a5,a4
1c008ff2:	b7f5                	j	1c008fde <rt_user_alloc+0x1c>

1c008ff4 <rt_alloc>:
1c008ff4:	1101                	addi	sp,sp,-32
1c008ff6:	c84a                	sw	s2,16(sp)
1c008ff8:	1c001937          	lui	s2,0x1c001
1c008ffc:	cc22                	sw	s0,24(sp)
1c008ffe:	ca26                	sw	s1,20(sp)
1c009000:	c64e                	sw	s3,12(sp)
1c009002:	ce06                	sw	ra,28(sp)
1c009004:	842a                	mv	s0,a0
1c009006:	89ae                	mv	s3,a1
1c009008:	448d                	li	s1,3
1c00900a:	ec490913          	addi	s2,s2,-316 # 1c000ec4 <__rt_alloc_l2>
1c00900e:	00241513          	slli	a0,s0,0x2
1c009012:	85ce                	mv	a1,s3
1c009014:	954a                	add	a0,a0,s2
1c009016:	3775                	jal	1c008fc2 <rt_user_alloc>
1c009018:	e519                	bnez	a0,1c009026 <rt_alloc+0x32>
1c00901a:	0405                	addi	s0,s0,1
1c00901c:	00343363          	p.bneimm	s0,3,1c009022 <rt_alloc+0x2e>
1c009020:	4401                	li	s0,0
1c009022:	14fd                	addi	s1,s1,-1
1c009024:	f4ed                	bnez	s1,1c00900e <rt_alloc+0x1a>
1c009026:	40f2                	lw	ra,28(sp)
1c009028:	4462                	lw	s0,24(sp)
1c00902a:	44d2                	lw	s1,20(sp)
1c00902c:	4942                	lw	s2,16(sp)
1c00902e:	49b2                	lw	s3,12(sp)
1c009030:	6105                	addi	sp,sp,32
1c009032:	8082                	ret

1c009034 <__rt_allocs_init>:
1c009034:	661d                	lui	a2,0x7
1c009036:	1c0015b7          	lui	a1,0x1c001
1c00903a:	1c001537          	lui	a0,0x1c001
1c00903e:	1141                	addi	sp,sp,-16
1c009040:	11060613          	addi	a2,a2,272 # 7110 <__l2_priv0_heap_size>
1c009044:	ef058593          	addi	a1,a1,-272 # 1c000ef0 <__l2_priv0_heap_start>
1c009048:	ec450513          	addi	a0,a0,-316 # 1c000ec4 <__rt_alloc_l2>
1c00904c:	c606                	sw	ra,12(sp)
1c00904e:	3f91                	jal	1c008fa2 <rt_user_alloc_init>
1c009050:	6619                	lui	a2,0x6
1c009052:	1c00a5b7          	lui	a1,0x1c00a
1c009056:	1c001537          	lui	a0,0x1c001
1c00905a:	f5860613          	addi	a2,a2,-168 # 5f58 <__l2_priv1_heap_size>
1c00905e:	0a858593          	addi	a1,a1,168 # 1c00a0a8 <__fc_code_end>
1c009062:	ec850513          	addi	a0,a0,-312 # 1c000ec8 <__rt_alloc_l2+0x4>
1c009066:	3f35                	jal	1c008fa2 <rt_user_alloc_init>
1c009068:	40b2                	lw	ra,12(sp)
1c00906a:	00070637          	lui	a2,0x70
1c00906e:	1c0105b7          	lui	a1,0x1c010
1c009072:	1c001537          	lui	a0,0x1c001
1c009076:	ff060613          	addi	a2,a2,-16 # 6fff0 <__l2_shared_heap_size>
1c00907a:	01058593          	addi	a1,a1,16 # 1c010010 <__L2_shared_end>
1c00907e:	ecc50513          	addi	a0,a0,-308 # 1c000ecc <__rt_alloc_l2+0x8>
1c009082:	0141                	addi	sp,sp,16
1c009084:	bf39                	j	1c008fa2 <rt_user_alloc_init>

1c009086 <__rt_freq_init>:
1c009086:	1141                	addi	sp,sp,-16
1c009088:	c422                	sw	s0,8(sp)
1c00908a:	c606                	sw	ra,12(sp)
1c00908c:	2939                	jal	1c0094aa <__rt_flls_constructor>
1c00908e:	00200793          	li	a5,2
1c009092:	1c001437          	lui	s0,0x1c001
1c009096:	0217a263          	p.beqimm	a5,1,1c0090ba <__rt_freq_init+0x34>
1c00909a:	4501                	li	a0,0
1c00909c:	26ad                	jal	1c009406 <__rt_fll_init>
1c00909e:	eca42823          	sw	a0,-304(s0) # 1c000ed0 <__rt_freq_domains>
1c0090a2:	ed040793          	addi	a5,s0,-304
1c0090a6:	4501                	li	a0,0
1c0090a8:	0007a223          	sw	zero,4(a5)
1c0090ac:	2ea9                	jal	1c009406 <__rt_fll_init>
1c0090ae:	eca42823          	sw	a0,-304(s0)
1c0090b2:	40b2                	lw	ra,12(sp)
1c0090b4:	4422                	lw	s0,8(sp)
1c0090b6:	0141                	addi	sp,sp,16
1c0090b8:	8082                	ret
1c0090ba:	026267b7          	lui	a5,0x2626
1c0090be:	a0078793          	addi	a5,a5,-1536 # 2625a00 <__rt_iodev_uart_baudrate+0x258d098>
1c0090c2:	ecf42823          	sw	a5,-304(s0)
1c0090c6:	bff1                	j	1c0090a2 <__rt_freq_init+0x1c>

1c0090c8 <__rt_himax_init>:
1c0090c8:	1c0017b7          	lui	a5,0x1c001
1c0090cc:	d8078023          	sb	zero,-640(a5) # 1c000d80 <camera_isAwaked>
1c0090d0:	8082                	ret

1c0090d2 <__rt_i2c_init>:
1c0090d2:	1c0107b7          	lui	a5,0x1c010
1c0090d6:	00078223          	sb	zero,4(a5) # 1c010004 <__rt_i2c+0x4>
1c0090da:	8082                	ret

1c0090dc <__rt_time_poweroff>:
1c0090dc:	1a10b7b7          	lui	a5,0x1a10b
1c0090e0:	47d8                	lw	a4,12(a5)
1c0090e2:	1c0017b7          	lui	a5,0x1c001
1c0090e6:	4501                	li	a0,0
1c0090e8:	eae7a823          	sw	a4,-336(a5) # 1c000eb0 <timer_count>
1c0090ec:	8082                	ret

1c0090ee <__rt_time_poweron>:
1c0090ee:	1c0017b7          	lui	a5,0x1c001
1c0090f2:	eb07a703          	lw	a4,-336(a5) # 1c000eb0 <timer_count>
1c0090f6:	1a10b7b7          	lui	a5,0x1a10b
1c0090fa:	4501                	li	a0,0
1c0090fc:	c7d8                	sw	a4,12(a5)
1c0090fe:	8082                	ret

1c009100 <__rt_time_init>:
1c009100:	1141                	addi	sp,sp,-16
1c009102:	1c0017b7          	lui	a5,0x1c001
1c009106:	c606                	sw	ra,12(sp)
1c009108:	c422                	sw	s0,8(sp)
1c00910a:	ec07ac23          	sw	zero,-296(a5) # 1c000ed8 <first_delayed>
1c00910e:	08300713          	li	a4,131
1c009112:	1a10b7b7          	lui	a5,0x1a10b
1c009116:	1c0095b7          	lui	a1,0x1c009
1c00911a:	c3d8                	sw	a4,4(a5)
1c00911c:	17858593          	addi	a1,a1,376 # 1c009178 <__rt_timer_handler>
1c009120:	452d                	li	a0,11
1c009122:	3499                	jal	1c008b68 <rt_irq_set_handler>
1c009124:	6785                	lui	a5,0x1
1c009126:	1a10a737          	lui	a4,0x1a10a
1c00912a:	80078793          	addi	a5,a5,-2048 # 800 <__rt_stack_size>
1c00912e:	1c0095b7          	lui	a1,0x1c009
1c009132:	80f72223          	sw	a5,-2044(a4) # 1a109804 <__rt_iodev_uart_baudrate+0x1a070e9c>
1c009136:	4601                	li	a2,0
1c009138:	0dc58593          	addi	a1,a1,220 # 1c0090dc <__rt_time_poweroff>
1c00913c:	4509                	li	a0,2
1c00913e:	34ed                	jal	1c008c28 <__rt_cbsys_add>
1c009140:	1c0095b7          	lui	a1,0x1c009
1c009144:	842a                	mv	s0,a0
1c009146:	4601                	li	a2,0
1c009148:	0ee58593          	addi	a1,a1,238 # 1c0090ee <__rt_time_poweron>
1c00914c:	450d                	li	a0,3
1c00914e:	3ce9                	jal	1c008c28 <__rt_cbsys_add>
1c009150:	8d41                	or	a0,a0,s0
1c009152:	cd19                	beqz	a0,1c009170 <__rt_time_init+0x70>
1c009154:	f1402673          	csrr	a2,mhartid
1c009158:	1c000537          	lui	a0,0x1c000
1c00915c:	40565593          	srai	a1,a2,0x5
1c009160:	f265b5b3          	p.bclr	a1,a1,25,6
1c009164:	f4563633          	p.bclr	a2,a2,26,5
1c009168:	3cc50513          	addi	a0,a0,972 # 1c0003cc <__DTOR_END__+0x1b4>
1c00916c:	2b6d                	jal	1c009726 <printf>
1c00916e:	2d19                	jal	1c009784 <abort>
1c009170:	40b2                	lw	ra,12(sp)
1c009172:	4422                	lw	s0,8(sp)
1c009174:	0141                	addi	sp,sp,16
1c009176:	8082                	ret

1c009178 <__rt_timer_handler>:
1c009178:	7179                	addi	sp,sp,-48
1c00917a:	cc3a                	sw	a4,24(sp)
1c00917c:	1a10b737          	lui	a4,0x1a10b
1c009180:	c472                	sw	t3,8(sp)
1c009182:	00c72e03          	lw	t3,12(a4) # 1a10b00c <__rt_iodev_uart_baudrate+0x1a0726a4>
1c009186:	d032                	sw	a2,32(sp)
1c009188:	ce36                	sw	a3,28(sp)
1c00918a:	1c001637          	lui	a2,0x1c001
1c00918e:	00400693          	li	a3,4
1c009192:	d42a                	sw	a0,40(sp)
1c009194:	d22e                	sw	a1,36(sp)
1c009196:	ca3e                	sw	a5,20(sp)
1c009198:	4288                	lw	a0,0(a3)
1c00919a:	ed862783          	lw	a5,-296(a2) # 1c000ed8 <first_delayed>
1c00919e:	42cc                	lw	a1,4(a3)
1c0091a0:	d61a                	sw	t1,44(sp)
1c0091a2:	80000337          	lui	t1,0x80000
1c0091a6:	c842                	sw	a6,16(sp)
1c0091a8:	c646                	sw	a7,12(sp)
1c0091aa:	c276                	sw	t4,4(sp)
1c0091ac:	c07a                	sw	t5,0(sp)
1c0091ae:	4801                	li	a6,0
1c0091b0:	4881                	li	a7,0
1c0091b2:	00400713          	li	a4,4
1c0091b6:	ffe34313          	xori	t1,t1,-2
1c0091ba:	ebc1                	bnez	a5,1c00924a <__rt_timer_handler+0xd2>
1c0091bc:	00088363          	beqz	a7,1c0091c2 <__rt_timer_handler+0x4a>
1c0091c0:	c308                	sw	a0,0(a4)
1c0091c2:	00080363          	beqz	a6,1c0091c8 <__rt_timer_handler+0x50>
1c0091c6:	c34c                	sw	a1,4(a4)
1c0091c8:	ec062c23          	sw	zero,-296(a2)
1c0091cc:	1a10b7b7          	lui	a5,0x1a10b
1c0091d0:	08100713          	li	a4,129
1c0091d4:	c3d8                	sw	a4,4(a5)
1c0091d6:	6785                	lui	a5,0x1
1c0091d8:	1a10a737          	lui	a4,0x1a10a
1c0091dc:	80078793          	addi	a5,a5,-2048 # 800 <__rt_stack_size>
1c0091e0:	80f72a23          	sw	a5,-2028(a4) # 1a109814 <__rt_iodev_uart_baudrate+0x1a070eac>
1c0091e4:	5332                	lw	t1,44(sp)
1c0091e6:	5522                	lw	a0,40(sp)
1c0091e8:	5592                	lw	a1,36(sp)
1c0091ea:	5602                	lw	a2,32(sp)
1c0091ec:	46f2                	lw	a3,28(sp)
1c0091ee:	4762                	lw	a4,24(sp)
1c0091f0:	47d2                	lw	a5,20(sp)
1c0091f2:	4842                	lw	a6,16(sp)
1c0091f4:	48b2                	lw	a7,12(sp)
1c0091f6:	4e22                	lw	t3,8(sp)
1c0091f8:	4e92                	lw	t4,4(sp)
1c0091fa:	4f02                	lw	t5,0(sp)
1c0091fc:	6145                	addi	sp,sp,48
1c0091fe:	30200073          	mret
1c009202:	47d4                	lw	a3,12(a5)
1c009204:	0087ae83          	lw	t4,8(a5)
1c009208:	0007a423          	sw	zero,8(a5)
1c00920c:	0006af03          	lw	t5,0(a3)
1c009210:	020f1563          	bnez	t5,1c00923a <__rt_timer_handler+0xc2>
1c009214:	c29c                	sw	a5,0(a3)
1c009216:	c2dc                	sw	a5,4(a3)
1c009218:	46dc                	lw	a5,12(a3)
1c00921a:	cf91                	beqz	a5,1c009236 <__rt_timer_handler+0xbe>
1c00921c:	0006a623          	sw	zero,12(a3)
1c009220:	0a47a683          	lw	a3,164(a5)
1c009224:	ca89                	beqz	a3,1c009236 <__rt_timer_handler+0xbe>
1c009226:	0207ac23          	sw	zero,56(a5)
1c00922a:	cd09                	beqz	a0,1c009244 <__rt_timer_handler+0xcc>
1c00922c:	dd9c                	sw	a5,56(a1)
1c00922e:	0a07a223          	sw	zero,164(a5)
1c009232:	85be                	mv	a1,a5
1c009234:	4805                	li	a6,1
1c009236:	87f6                	mv	a5,t4
1c009238:	b749                	j	1c0091ba <__rt_timer_handler+0x42>
1c00923a:	0046af03          	lw	t5,4(a3)
1c00923e:	00ff2423          	sw	a5,8(t5)
1c009242:	bfd1                	j	1c009216 <__rt_timer_handler+0x9e>
1c009244:	853e                	mv	a0,a5
1c009246:	4885                	li	a7,1
1c009248:	b7dd                	j	1c00922e <__rt_timer_handler+0xb6>
1c00924a:	4f94                	lw	a3,24(a5)
1c00924c:	40de0eb3          	sub	t4,t3,a3
1c009250:	fbd379e3          	bleu	t4,t1,1c009202 <__rt_timer_handler+0x8a>
1c009254:	00088363          	beqz	a7,1c00925a <__rt_timer_handler+0xe2>
1c009258:	c308                	sw	a0,0(a4)
1c00925a:	00080363          	beqz	a6,1c009260 <__rt_timer_handler+0xe8>
1c00925e:	c34c                	sw	a1,4(a4)
1c009260:	ecf62c23          	sw	a5,-296(a2)
1c009264:	1a10b7b7          	lui	a5,0x1a10b
1c009268:	00c78713          	addi	a4,a5,12 # 1a10b00c <__rt_iodev_uart_baudrate+0x1a0726a4>
1c00926c:	4318                	lw	a4,0(a4)
1c00926e:	41c70733          	sub	a4,a4,t3
1c009272:	9736                	add	a4,a4,a3
1c009274:	01478693          	addi	a3,a5,20
1c009278:	c298                	sw	a4,0(a3)
1c00927a:	0791                	addi	a5,a5,4
1c00927c:	08500713          	li	a4,133
1c009280:	c398                	sw	a4,0(a5)
1c009282:	b78d                	j	1c0091e4 <__rt_timer_handler+0x6c>

1c009284 <rt_periph_copy>:
1c009284:	1101                	addi	sp,sp,-32
1c009286:	cc22                	sw	s0,24(sp)
1c009288:	c84a                	sw	s2,16(sp)
1c00928a:	842a                	mv	s0,a0
1c00928c:	892e                	mv	s2,a1
1c00928e:	ce06                	sw	ra,28(sp)
1c009290:	ca26                	sw	s1,20(sp)
1c009292:	300474f3          	csrrci	s1,mstatus,8
1c009296:	853e                	mv	a0,a5
1c009298:	eb91                	bnez	a5,1c0092ac <rt_periph_copy+0x28>
1c00929a:	c632                	sw	a2,12(sp)
1c00929c:	c436                	sw	a3,8(sp)
1c00929e:	c23a                	sw	a4,4(sp)
1c0092a0:	c03e                	sw	a5,0(sp)
1c0092a2:	3ea5                	jal	1c008e1a <__rt_wait_event_prepare_blocking>
1c0092a4:	4782                	lw	a5,0(sp)
1c0092a6:	4712                	lw	a4,4(sp)
1c0092a8:	46a2                	lw	a3,8(sp)
1c0092aa:	4632                	lw	a2,12(sp)
1c0092ac:	e419                	bnez	s0,1c0092ba <rt_periph_copy+0x36>
1c0092ae:	01850413          	addi	s0,a0,24
1c0092b2:	02052223          	sw	zero,36(a0)
1c0092b6:	04051023          	sh	zero,64(a0)
1c0092ba:	02c00813          	li	a6,44
1c0092be:	45e1                	li	a1,24
1c0092c0:	42b90833          	p.mac	a6,s2,a1
1c0092c4:	c054                	sw	a3,4(s0)
1c0092c6:	cc08                	sw	a0,24(s0)
1c0092c8:	00042a23          	sw	zero,20(s0)
1c0092cc:	02c00893          	li	a7,44
1c0092d0:	00082583          	lw	a1,0(a6)
1c0092d4:	e5bd                	bnez	a1,1c009342 <rt_periph_copy+0xbe>
1c0092d6:	00882023          	sw	s0,0(a6)
1c0092da:	45e1                	li	a1,24
1c0092dc:	8846                	mv	a6,a7
1c0092de:	42b90833          	p.mac	a6,s2,a1
1c0092e2:	00c42303          	lw	t1,12(s0)
1c0092e6:	4591                	li	a1,4
1c0092e8:	00882223          	sw	s0,4(a6)
1c0092ec:	0465e163          	bltu	a1,t1,1c00932e <rt_periph_copy+0xaa>
1c0092f0:	00882e03          	lw	t3,8(a6)
1c0092f4:	c0474733          	p.bset	a4,a4,0,4
1c0092f8:	040e1963          	bnez	t3,1c00934a <rt_periph_copy+0xc6>
1c0092fc:	40195813          	srai	a6,s2,0x1
1c009300:	081e                	slli	a6,a6,0x7
1c009302:	1a1025b7          	lui	a1,0x1a102
1c009306:	00491313          	slli	t1,s2,0x4
1c00930a:	01037313          	andi	t1,t1,16
1c00930e:	982e                	add	a6,a6,a1
1c009310:	981a                	add	a6,a6,t1
1c009312:	00880e93          	addi	t4,a6,8
1c009316:	000ea303          	lw	t1,0(t4)
1c00931a:	02037313          	andi	t1,t1,32
1c00931e:	02031663          	bnez	t1,1c00934a <rt_periph_copy+0xc6>
1c009322:	85c2                	mv	a1,a6
1c009324:	00c5a22b          	p.sw	a2,4(a1!) # 1a102004 <__rt_iodev_uart_baudrate+0x1a06969c>
1c009328:	c194                	sw	a3,0(a1)
1c00932a:	00eea023          	sw	a4,0(t4)
1c00932e:	e391                	bnez	a5,1c009332 <rt_periph_copy+0xae>
1c009330:	3139                	jal	1c008f3e <__rt_wait_event>
1c009332:	30049073          	csrw	mstatus,s1
1c009336:	40f2                	lw	ra,28(sp)
1c009338:	4462                	lw	s0,24(sp)
1c00933a:	44d2                	lw	s1,20(sp)
1c00933c:	4942                	lw	s2,16(sp)
1c00933e:	6105                	addi	sp,sp,32
1c009340:	8082                	ret
1c009342:	00482583          	lw	a1,4(a6)
1c009346:	c9c0                	sw	s0,20(a1)
1c009348:	bf49                	j	1c0092da <rt_periph_copy+0x56>
1c00934a:	00042823          	sw	zero,16(s0)
1c00934e:	c010                	sw	a2,0(s0)
1c009350:	c054                	sw	a3,4(s0)
1c009352:	c418                	sw	a4,8(s0)
1c009354:	fc0e1de3          	bnez	t3,1c00932e <rt_periph_copy+0xaa>
1c009358:	4761                	li	a4,24
1c00935a:	42e908b3          	p.mac	a7,s2,a4
1c00935e:	0088a423          	sw	s0,8(a7)
1c009362:	b7f1                	j	1c00932e <rt_periph_copy+0xaa>

1c009364 <__rt_periph_init>:
1c009364:	02c00793          	li	a5,44
1c009368:	4681                	li	a3,0
1c00936a:	1a102537          	lui	a0,0x1a102
1c00936e:	012850fb          	lp.setupi	x1,18,1c00938e <__rt_periph_init+0x2a>
1c009372:	4016d713          	srai	a4,a3,0x1
1c009376:	00469593          	slli	a1,a3,0x4
1c00937a:	071e                	slli	a4,a4,0x7
1c00937c:	972a                	add	a4,a4,a0
1c00937e:	89c1                	andi	a1,a1,16
1c009380:	972e                	add	a4,a4,a1
1c009382:	0007a023          	sw	zero,0(a5)
1c009386:	0007a423          	sw	zero,8(a5)
1c00938a:	c7d8                	sw	a4,12(a5)
1c00938c:	0685                	addi	a3,a3,1
1c00938e:	07e1                	addi	a5,a5,24
1c009390:	1c0017b7          	lui	a5,0x1c001
1c009394:	edc78793          	addi	a5,a5,-292 # 1c000edc <__rt_socevents_status>
1c009398:	0007a023          	sw	zero,0(a5)
1c00939c:	0007a223          	sw	zero,4(a5)
1c0093a0:	8082                	ret

1c0093a2 <__rt_fll_set_freq>:
1c0093a2:	100596b3          	p.fl1	a3,a1
1c0093a6:	47f5                	li	a5,29
1c0093a8:	872a                	mv	a4,a0
1c0093aa:	82d7b7db          	p.subun	a5,a5,a3,1
1c0093ae:	4505                	li	a0,1
1c0093b0:	04f567b3          	p.max	a5,a0,a5
1c0093b4:	fff78693          	addi	a3,a5,-1
1c0093b8:	00f595b3          	sll	a1,a1,a5
1c0093bc:	00d51533          	sll	a0,a0,a3
1c0093c0:	dc05b6b3          	p.bclr	a3,a1,14,0
1c0093c4:	c0f6a55b          	p.addunr	a0,a3,a5
1c0093c8:	1c0016b7          	lui	a3,0x1c001
1c0093cc:	ee468693          	addi	a3,a3,-284 # 1c000ee4 <__rt_fll_freq>
1c0093d0:	00271613          	slli	a2,a4,0x2
1c0093d4:	00a6e623          	p.sw	a0,a2(a3)
1c0093d8:	1c0016b7          	lui	a3,0x1c001
1c0093dc:	eb468693          	addi	a3,a3,-332 # 1c000eb4 <__rt_fll_is_on>
1c0093e0:	96ba                	add	a3,a3,a4
1c0093e2:	0006c683          	lbu	a3,0(a3)
1c0093e6:	ce99                	beqz	a3,1c009404 <__rt_fll_set_freq+0x62>
1c0093e8:	0712                	slli	a4,a4,0x4
1c0093ea:	0711                	addi	a4,a4,4
1c0093ec:	1a100637          	lui	a2,0x1a100
1c0093f0:	20e67683          	p.lw	a3,a4(a2)
1c0093f4:	81bd                	srli	a1,a1,0xf
1c0093f6:	de05a6b3          	p.insert	a3,a1,15,0
1c0093fa:	0785                	addi	a5,a5,1
1c0093fc:	c7a7a6b3          	p.insert	a3,a5,3,26
1c009400:	00d66723          	p.sw	a3,a4(a2)
1c009404:	8082                	ret

1c009406 <__rt_fll_init>:
1c009406:	1141                	addi	sp,sp,-16
1c009408:	00451613          	slli	a2,a0,0x4
1c00940c:	c226                	sw	s1,4(sp)
1c00940e:	00460813          	addi	a6,a2,4 # 1a100004 <__rt_iodev_uart_baudrate+0x1a06769c>
1c009412:	84aa                	mv	s1,a0
1c009414:	1a1006b7          	lui	a3,0x1a100
1c009418:	c606                	sw	ra,12(sp)
1c00941a:	c422                	sw	s0,8(sp)
1c00941c:	2106f703          	p.lw	a4,a6(a3)
1c009420:	87ba                	mv	a5,a4
1c009422:	04074163          	bltz	a4,1c009464 <__rt_fll_init+0x5e>
1c009426:	00860893          	addi	a7,a2,8
1c00942a:	2116f503          	p.lw	a0,a7(a3)
1c00942e:	4599                	li	a1,6
1c009430:	caa5a533          	p.insert	a0,a1,5,10
1c009434:	05000593          	li	a1,80
1c009438:	d705a533          	p.insert	a0,a1,11,16
1c00943c:	1a1005b7          	lui	a1,0x1a100
1c009440:	00a5e8a3          	p.sw	a0,a7(a1)
1c009444:	0631                	addi	a2,a2,12
1c009446:	20c6f683          	p.lw	a3,a2(a3)
1c00944a:	14c00513          	li	a0,332
1c00944e:	d30526b3          	p.insert	a3,a0,9,16
1c009452:	00d5e623          	p.sw	a3,a2(a1)
1c009456:	4685                	li	a3,1
1c009458:	c1e6a7b3          	p.insert	a5,a3,0,30
1c00945c:	c1f6a7b3          	p.insert	a5,a3,0,31
1c009460:	00f5e823          	p.sw	a5,a6(a1)
1c009464:	1c001637          	lui	a2,0x1c001
1c009468:	00249693          	slli	a3,s1,0x2
1c00946c:	ee460613          	addi	a2,a2,-284 # 1c000ee4 <__rt_fll_freq>
1c009470:	96b2                	add	a3,a3,a2
1c009472:	4280                	lw	s0,0(a3)
1c009474:	c00d                	beqz	s0,1c009496 <__rt_fll_init+0x90>
1c009476:	85a2                	mv	a1,s0
1c009478:	8526                	mv	a0,s1
1c00947a:	3725                	jal	1c0093a2 <__rt_fll_set_freq>
1c00947c:	1c0017b7          	lui	a5,0x1c001
1c009480:	eb478793          	addi	a5,a5,-332 # 1c000eb4 <__rt_fll_is_on>
1c009484:	4705                	li	a4,1
1c009486:	00e7c4a3          	p.sb	a4,s1(a5)
1c00948a:	8522                	mv	a0,s0
1c00948c:	40b2                	lw	ra,12(sp)
1c00948e:	4422                	lw	s0,8(sp)
1c009490:	4492                	lw	s1,4(sp)
1c009492:	0141                	addi	sp,sp,16
1c009494:	8082                	ret
1c009496:	10075733          	p.exthz	a4,a4
1c00949a:	c7a797b3          	p.extractu	a5,a5,3,26
1c00949e:	073e                	slli	a4,a4,0xf
1c0094a0:	17fd                	addi	a5,a5,-1
1c0094a2:	00f75433          	srl	s0,a4,a5
1c0094a6:	c280                	sw	s0,0(a3)
1c0094a8:	bfd1                	j	1c00947c <__rt_fll_init+0x76>

1c0094aa <__rt_flls_constructor>:
1c0094aa:	1c0017b7          	lui	a5,0x1c001
1c0094ae:	ee07a223          	sw	zero,-284(a5) # 1c000ee4 <__rt_fll_freq>
1c0094b2:	ee478793          	addi	a5,a5,-284
1c0094b6:	0007a223          	sw	zero,4(a5)
1c0094ba:	1c0017b7          	lui	a5,0x1c001
1c0094be:	ea079a23          	sh	zero,-332(a5) # 1c000eb4 <__rt_fll_is_on>
1c0094c2:	8082                	ret

1c0094c4 <__rt_padframe_constructor>:
1c0094c4:	1c0017b7          	lui	a5,0x1c001
1c0094c8:	ea078b23          	sb	zero,-330(a5) # 1c000eb6 <__rt_padframe_is_init>
1c0094cc:	8082                	ret

1c0094ce <__rt_bridge_check_bridge_req.part.2>:
1c0094ce:	1c001737          	lui	a4,0x1c001
1c0094d2:	d9470793          	addi	a5,a4,-620 # 1c000d94 <__hal_debug_struct>
1c0094d6:	0987a783          	lw	a5,152(a5)
1c0094da:	d9470713          	addi	a4,a4,-620
1c0094de:	c789                	beqz	a5,1c0094e8 <__rt_bridge_check_bridge_req.part.2+0x1a>
1c0094e0:	4b94                	lw	a3,16(a5)
1c0094e2:	e681                	bnez	a3,1c0094ea <__rt_bridge_check_bridge_req.part.2+0x1c>
1c0094e4:	0af72023          	sw	a5,160(a4)
1c0094e8:	8082                	ret
1c0094ea:	439c                	lw	a5,0(a5)
1c0094ec:	bfcd                	j	1c0094de <__rt_bridge_check_bridge_req.part.2+0x10>

1c0094ee <__rt_bridge_handle_notif>:
1c0094ee:	1c0017b7          	lui	a5,0x1c001
1c0094f2:	d9478713          	addi	a4,a5,-620 # 1c000d94 <__hal_debug_struct>
1c0094f6:	09872703          	lw	a4,152(a4)
1c0094fa:	d9478793          	addi	a5,a5,-620
1c0094fe:	c319                	beqz	a4,1c009504 <__rt_bridge_handle_notif+0x16>
1c009500:	4754                	lw	a3,12(a4)
1c009502:	e689                	bnez	a3,1c00950c <__rt_bridge_handle_notif+0x1e>
1c009504:	0a07a783          	lw	a5,160(a5)
1c009508:	e795                	bnez	a5,1c009534 <__rt_bridge_handle_notif+0x46>
1c00950a:	b7d1                	j	1c0094ce <__rt_bridge_check_bridge_req.part.2>
1c00950c:	4310                	lw	a2,0(a4)
1c00950e:	5f18                	lw	a4,56(a4)
1c009510:	08c7ac23          	sw	a2,152(a5)
1c009514:	300475f3          	csrrci	a1,mstatus,8
1c009518:	4754                	lw	a3,12(a4)
1c00951a:	00072423          	sw	zero,8(a4)
1c00951e:	4288                	lw	a0,0(a3)
1c009520:	c901                	beqz	a0,1c009530 <__rt_bridge_handle_notif+0x42>
1c009522:	42c8                	lw	a0,4(a3)
1c009524:	c518                	sw	a4,8(a0)
1c009526:	c2d8                	sw	a4,4(a3)
1c009528:	30059073          	csrw	mstatus,a1
1c00952c:	8732                	mv	a4,a2
1c00952e:	bfc1                	j	1c0094fe <__rt_bridge_handle_notif+0x10>
1c009530:	c298                	sw	a4,0(a3)
1c009532:	bfd5                	j	1c009526 <__rt_bridge_handle_notif+0x38>
1c009534:	8082                	ret

1c009536 <rt_is_fc>:
1c009536:	f1402573          	csrr	a0,mhartid
1c00953a:	8515                	srai	a0,a0,0x5
1c00953c:	f2653533          	p.bclr	a0,a0,25,6
1c009540:	1505                	addi	a0,a0,-31
1c009542:	00153513          	seqz	a0,a0
1c009546:	8082                	ret

1c009548 <__rt_io_uart_wait_pending>:
1c009548:	1141                	addi	sp,sp,-16
1c00954a:	c422                	sw	s0,8(sp)
1c00954c:	1c001437          	lui	s0,0x1c001
1c009550:	eb840413          	addi	s0,s0,-328 # 1c000eb8 <__rt_io_event_current>
1c009554:	c226                	sw	s1,4(sp)
1c009556:	4004                	lw	s1,0(s0)
1c009558:	c606                	sw	ra,12(sp)
1c00955a:	c499                	beqz	s1,1c009568 <__rt_io_uart_wait_pending+0x20>
1c00955c:	3fe9                	jal	1c009536 <rt_is_fc>
1c00955e:	c509                	beqz	a0,1c009568 <__rt_io_uart_wait_pending+0x20>
1c009560:	8526                	mv	a0,s1
1c009562:	3c09                	jal	1c008f74 <rt_event_wait>
1c009564:	00042023          	sw	zero,0(s0)
1c009568:	40b2                	lw	ra,12(sp)
1c00956a:	4422                	lw	s0,8(sp)
1c00956c:	4492                	lw	s1,4(sp)
1c00956e:	0141                	addi	sp,sp,16
1c009570:	8082                	ret

1c009572 <__rt_io_lock>:
1c009572:	1c0017b7          	lui	a5,0x1c001
1c009576:	d987a783          	lw	a5,-616(a5) # 1c000d98 <__hal_debug_struct+0x4>
1c00957a:	c791                	beqz	a5,1c009586 <__rt_io_lock+0x14>
1c00957c:	1c0017b7          	lui	a5,0x1c001
1c009580:	ebc7a783          	lw	a5,-324(a5) # 1c000ebc <_rt_io_uart>
1c009584:	c385                	beqz	a5,1c0095a4 <__rt_io_lock+0x32>
1c009586:	1141                	addi	sp,sp,-16
1c009588:	c606                	sw	ra,12(sp)
1c00958a:	3775                	jal	1c009536 <rt_is_fc>
1c00958c:	c909                	beqz	a0,1c00959e <__rt_io_lock+0x2c>
1c00958e:	40b2                	lw	ra,12(sp)
1c009590:	1c001537          	lui	a0,0x1c001
1c009594:	d8450513          	addi	a0,a0,-636 # 1c000d84 <__rt_io_fc_lock>
1c009598:	0141                	addi	sp,sp,16
1c00959a:	f1eff06f          	j	1c008cb8 <__rt_fc_lock>
1c00959e:	40b2                	lw	ra,12(sp)
1c0095a0:	0141                	addi	sp,sp,16
1c0095a2:	8082                	ret
1c0095a4:	8082                	ret

1c0095a6 <__rt_io_unlock>:
1c0095a6:	1c0017b7          	lui	a5,0x1c001
1c0095aa:	d987a783          	lw	a5,-616(a5) # 1c000d98 <__hal_debug_struct+0x4>
1c0095ae:	c791                	beqz	a5,1c0095ba <__rt_io_unlock+0x14>
1c0095b0:	1c0017b7          	lui	a5,0x1c001
1c0095b4:	ebc7a783          	lw	a5,-324(a5) # 1c000ebc <_rt_io_uart>
1c0095b8:	c385                	beqz	a5,1c0095d8 <__rt_io_unlock+0x32>
1c0095ba:	1141                	addi	sp,sp,-16
1c0095bc:	c606                	sw	ra,12(sp)
1c0095be:	3fa5                	jal	1c009536 <rt_is_fc>
1c0095c0:	c909                	beqz	a0,1c0095d2 <__rt_io_unlock+0x2c>
1c0095c2:	40b2                	lw	ra,12(sp)
1c0095c4:	1c001537          	lui	a0,0x1c001
1c0095c8:	d8450513          	addi	a0,a0,-636 # 1c000d84 <__rt_io_fc_lock>
1c0095cc:	0141                	addi	sp,sp,16
1c0095ce:	f22ff06f          	j	1c008cf0 <__rt_fc_unlock>
1c0095d2:	40b2                	lw	ra,12(sp)
1c0095d4:	0141                	addi	sp,sp,16
1c0095d6:	8082                	ret
1c0095d8:	8082                	ret

1c0095da <__rt_io_stop>:
1c0095da:	1141                	addi	sp,sp,-16
1c0095dc:	c606                	sw	ra,12(sp)
1c0095de:	37ad                	jal	1c009548 <__rt_io_uart_wait_pending>
1c0095e0:	1c0017b7          	lui	a5,0x1c001
1c0095e4:	ebc7a503          	lw	a0,-324(a5) # 1c000ebc <_rt_io_uart>
1c0095e8:	4581                	li	a1,0
1c0095ea:	21d000ef          	jal	ra,1c00a006 <rt_uart_close>
1c0095ee:	40b2                	lw	ra,12(sp)
1c0095f0:	4501                	li	a0,0
1c0095f2:	0141                	addi	sp,sp,16
1c0095f4:	8082                	ret

1c0095f6 <__rt_io_start>:
1c0095f6:	1101                	addi	sp,sp,-32
1c0095f8:	0028                	addi	a0,sp,8
1c0095fa:	ce06                	sw	ra,28(sp)
1c0095fc:	159000ef          	jal	ra,1c009f54 <rt_uart_conf_init>
1c009600:	000997b7          	lui	a5,0x99
1c009604:	96878793          	addi	a5,a5,-1688 # 98968 <__rt_iodev_uart_baudrate>
1c009608:	c43e                	sw	a5,8(sp)
1c00960a:	00c02783          	lw	a5,12(zero) # c <__rt_thread_current>
1c00960e:	1c001537          	lui	a0,0x1c001
1c009612:	e4850513          	addi	a0,a0,-440 # 1c000e48 <_bss_start>
1c009616:	0a07a583          	lw	a1,160(a5)
1c00961a:	ff0ff0ef          	jal	ra,1c008e0a <__rt_event_init>
1c00961e:	002c                	addi	a1,sp,8
1c009620:	4681                	li	a3,0
1c009622:	4601                	li	a2,0
1c009624:	00000513          	li	a0,0
1c009628:	13d000ef          	jal	ra,1c009f64 <__rt_uart_open>
1c00962c:	40f2                	lw	ra,28(sp)
1c00962e:	1c0017b7          	lui	a5,0x1c001
1c009632:	eaa7ae23          	sw	a0,-324(a5) # 1c000ebc <_rt_io_uart>
1c009636:	4501                	li	a0,0
1c009638:	6105                	addi	sp,sp,32
1c00963a:	8082                	ret

1c00963c <__rt_io_uart_flush.constprop.2>:
1c00963c:	1101                	addi	sp,sp,-32
1c00963e:	cc22                	sw	s0,24(sp)
1c009640:	1c001437          	lui	s0,0x1c001
1c009644:	d9440793          	addi	a5,s0,-620 # 1c000d94 <__hal_debug_struct>
1c009648:	47d4                	lw	a3,12(a5)
1c00964a:	ce06                	sw	ra,28(sp)
1c00964c:	c695                	beqz	a3,1c009678 <__rt_io_uart_flush.constprop.2+0x3c>
1c00964e:	c636                	sw	a3,12(sp)
1c009650:	35dd                	jal	1c009536 <rt_is_fc>
1c009652:	d9440413          	addi	s0,s0,-620
1c009656:	46b2                	lw	a3,12(sp)
1c009658:	cd11                	beqz	a0,1c009674 <__rt_io_uart_flush.constprop.2+0x38>
1c00965a:	1c0017b7          	lui	a5,0x1c001
1c00965e:	ebc7a783          	lw	a5,-324(a5) # 1c000ebc <_rt_io_uart>
1c009662:	4701                	li	a4,0
1c009664:	01040613          	addi	a2,s0,16
1c009668:	43cc                	lw	a1,4(a5)
1c00966a:	4501                	li	a0,0
1c00966c:	4781                	li	a5,0
1c00966e:	0586                	slli	a1,a1,0x1
1c009670:	0585                	addi	a1,a1,1
1c009672:	3909                	jal	1c009284 <rt_periph_copy>
1c009674:	00042623          	sw	zero,12(s0)
1c009678:	40f2                	lw	ra,28(sp)
1c00967a:	4462                	lw	s0,24(sp)
1c00967c:	6105                	addi	sp,sp,32
1c00967e:	8082                	ret

1c009680 <__rt_putc_debug_bridge>:
1c009680:	1c0017b7          	lui	a5,0x1c001
1c009684:	d9478793          	addi	a5,a5,-620 # 1c000d94 <__hal_debug_struct>
1c009688:	4798                	lw	a4,8(a5)
1c00968a:	ff7d                	bnez	a4,1c009688 <__rt_putc_debug_bridge+0x8>
1c00968c:	47d8                	lw	a4,12(a5)
1c00968e:	00170693          	addi	a3,a4,1
1c009692:	973e                	add	a4,a4,a5
1c009694:	00a70823          	sb	a0,16(a4)
1c009698:	c7d4                	sw	a3,12(a5)
1c00969a:	47d0                	lw	a2,12(a5)
1c00969c:	08000713          	li	a4,128
1c0096a0:	00e60463          	beq	a2,a4,1c0096a8 <__rt_putc_debug_bridge+0x28>
1c0096a4:	00a53663          	p.bneimm	a0,10,1c0096b0 <__rt_putc_debug_bridge+0x30>
1c0096a8:	c681                	beqz	a3,1c0096b0 <__rt_putc_debug_bridge+0x30>
1c0096aa:	c794                	sw	a3,8(a5)
1c0096ac:	0007a623          	sw	zero,12(a5)
1c0096b0:	8082                	ret

1c0096b2 <__rt_putc_uart>:
1c0096b2:	1101                	addi	sp,sp,-32
1c0096b4:	c62a                	sw	a0,12(sp)
1c0096b6:	ce06                	sw	ra,28(sp)
1c0096b8:	3d41                	jal	1c009548 <__rt_io_uart_wait_pending>
1c0096ba:	1c0017b7          	lui	a5,0x1c001
1c0096be:	d9478793          	addi	a5,a5,-620 # 1c000d94 <__hal_debug_struct>
1c0096c2:	47d4                	lw	a3,12(a5)
1c0096c4:	4532                	lw	a0,12(sp)
1c0096c6:	00168713          	addi	a4,a3,1 # 1a100001 <__rt_iodev_uart_baudrate+0x1a067699>
1c0096ca:	c7d8                	sw	a4,12(a5)
1c0096cc:	97b6                	add	a5,a5,a3
1c0096ce:	00a78823          	sb	a0,16(a5)
1c0096d2:	08000793          	li	a5,128
1c0096d6:	00f70463          	beq	a4,a5,1c0096de <__rt_putc_uart+0x2c>
1c0096da:	00a53563          	p.bneimm	a0,10,1c0096e4 <__rt_putc_uart+0x32>
1c0096de:	40f2                	lw	ra,28(sp)
1c0096e0:	6105                	addi	sp,sp,32
1c0096e2:	bfa9                	j	1c00963c <__rt_io_uart_flush.constprop.2>
1c0096e4:	40f2                	lw	ra,28(sp)
1c0096e6:	6105                	addi	sp,sp,32
1c0096e8:	8082                	ret

1c0096ea <tfp_putc>:
1c0096ea:	1c0017b7          	lui	a5,0x1c001
1c0096ee:	d987a783          	lw	a5,-616(a5) # 1c000d98 <__hal_debug_struct+0x4>
1c0096f2:	852e                	mv	a0,a1
1c0096f4:	cb85                	beqz	a5,1c009724 <tfp_putc+0x3a>
1c0096f6:	1c0017b7          	lui	a5,0x1c001
1c0096fa:	ebc7a783          	lw	a5,-324(a5) # 1c000ebc <_rt_io_uart>
1c0096fe:	c391                	beqz	a5,1c009702 <tfp_putc+0x18>
1c009700:	bf4d                	j	1c0096b2 <__rt_putc_uart>
1c009702:	6689                	lui	a3,0x2
1c009704:	f14027f3          	csrr	a5,mhartid
1c009708:	f8068693          	addi	a3,a3,-128 # 1f80 <__rt_stack_size+0x1780>
1c00970c:	00379713          	slli	a4,a5,0x3
1c009710:	078a                	slli	a5,a5,0x2
1c009712:	ee873733          	p.bclr	a4,a4,23,8
1c009716:	8ff5                	and	a5,a5,a3
1c009718:	97ba                	add	a5,a5,a4
1c00971a:	1a10f737          	lui	a4,0x1a10f
1c00971e:	00b767a3          	p.sw	a1,a5(a4)
1c009722:	8082                	ret
1c009724:	bfb1                	j	1c009680 <__rt_putc_debug_bridge>

1c009726 <printf>:
1c009726:	715d                	addi	sp,sp,-80
1c009728:	d606                	sw	ra,44(sp)
1c00972a:	c0ba                	sw	a4,64(sp)
1c00972c:	c2be                	sw	a5,68(sp)
1c00972e:	c4c2                	sw	a6,72(sp)
1c009730:	c6c6                	sw	a7,76(sp)
1c009732:	da2e                	sw	a1,52(sp)
1c009734:	dc32                	sw	a2,56(sp)
1c009736:	de36                	sw	a3,60(sp)
1c009738:	c62a                	sw	a0,12(sp)
1c00973a:	3d25                	jal	1c009572 <__rt_io_lock>
1c00973c:	4532                	lw	a0,12(sp)
1c00973e:	1c0095b7          	lui	a1,0x1c009
1c009742:	1854                	addi	a3,sp,52
1c009744:	862a                	mv	a2,a0
1c009746:	6ea58593          	addi	a1,a1,1770 # 1c0096ea <tfp_putc>
1c00974a:	4501                	li	a0,0
1c00974c:	ce36                	sw	a3,28(sp)
1c00974e:	26b9                	jal	1c009a9c <tfp_format>
1c009750:	3d99                	jal	1c0095a6 <__rt_io_unlock>
1c009752:	50b2                	lw	ra,44(sp)
1c009754:	4501                	li	a0,0
1c009756:	6161                	addi	sp,sp,80
1c009758:	8082                	ret

1c00975a <exit>:
1c00975a:	1c0017b7          	lui	a5,0x1c001
1c00975e:	d9478793          	addi	a5,a5,-620 # 1c000d94 <__hal_debug_struct>
1c009762:	4798                	lw	a4,8(a5)
1c009764:	ff7d                	bnez	a4,1c009762 <exit+0x8>
1c009766:	c1f54533          	p.bset	a0,a0,0,31
1c00976a:	c388                	sw	a0,0(a5)
1c00976c:	1a1047b7          	lui	a5,0x1a104
1c009770:	0aa7a023          	sw	a0,160(a5) # 1a1040a0 <__rt_iodev_uart_baudrate+0x1a06b738>
1c009774:	577d                	li	a4,-1
1c009776:	1a10a7b7          	lui	a5,0x1a10a
1c00977a:	80e7a423          	sw	a4,-2040(a5) # 1a109808 <__rt_iodev_uart_baudrate+0x1a070ea0>
1c00977e:	10500073          	wfi
1c009782:	bff5                	j	1c00977e <exit+0x24>

1c009784 <abort>:
1c009784:	1141                	addi	sp,sp,-16
1c009786:	557d                	li	a0,-1
1c009788:	c606                	sw	ra,12(sp)
1c00978a:	3fc1                	jal	1c00975a <exit>

1c00978c <__rt_io_init>:
1c00978c:	1c0017b7          	lui	a5,0x1c001
1c009790:	d8478793          	addi	a5,a5,-636 # 1c000d84 <__rt_io_fc_lock>
1c009794:	0007a223          	sw	zero,4(a5)
1c009798:	0007a023          	sw	zero,0(a5)
1c00979c:	0007a623          	sw	zero,12(a5)
1c0097a0:	1c0017b7          	lui	a5,0x1c001
1c0097a4:	ea07ae23          	sw	zero,-324(a5) # 1c000ebc <_rt_io_uart>
1c0097a8:	1c0017b7          	lui	a5,0x1c001
1c0097ac:	ea07ac23          	sw	zero,-328(a5) # 1c000eb8 <__rt_io_event_current>
1c0097b0:	00000793          	li	a5,0
1c0097b4:	0217b663          	p.bneimm	a5,1,1c0097e0 <__rt_io_init+0x54>
1c0097b8:	1c0095b7          	lui	a1,0x1c009
1c0097bc:	1141                	addi	sp,sp,-16
1c0097be:	4601                	li	a2,0
1c0097c0:	5f658593          	addi	a1,a1,1526 # 1c0095f6 <__rt_io_start>
1c0097c4:	4501                	li	a0,0
1c0097c6:	c606                	sw	ra,12(sp)
1c0097c8:	c60ff0ef          	jal	ra,1c008c28 <__rt_cbsys_add>
1c0097cc:	40b2                	lw	ra,12(sp)
1c0097ce:	1c0095b7          	lui	a1,0x1c009
1c0097d2:	4601                	li	a2,0
1c0097d4:	5da58593          	addi	a1,a1,1498 # 1c0095da <__rt_io_stop>
1c0097d8:	4505                	li	a0,1
1c0097da:	0141                	addi	sp,sp,16
1c0097dc:	c4cff06f          	j	1c008c28 <__rt_cbsys_add>
1c0097e0:	8082                	ret

1c0097e2 <ulli2a>:
1c0097e2:	7179                	addi	sp,sp,-48
1c0097e4:	d04a                	sw	s2,32(sp)
1c0097e6:	c85a                	sw	s6,16(sp)
1c0097e8:	01062903          	lw	s2,16(a2)
1c0097ec:	00c62b03          	lw	s6,12(a2)
1c0097f0:	d422                	sw	s0,40(sp)
1c0097f2:	d226                	sw	s1,36(sp)
1c0097f4:	ce4e                	sw	s3,28(sp)
1c0097f6:	cc52                	sw	s4,24(sp)
1c0097f8:	ca56                	sw	s5,20(sp)
1c0097fa:	c65e                	sw	s7,12(sp)
1c0097fc:	d606                	sw	ra,44(sp)
1c0097fe:	c462                	sw	s8,8(sp)
1c009800:	c266                	sw	s9,4(sp)
1c009802:	c06a                	sw	s10,0(sp)
1c009804:	8a2a                	mv	s4,a0
1c009806:	8aae                	mv	s5,a1
1c009808:	89b2                	mv	s3,a2
1c00980a:	4b81                	li	s7,0
1c00980c:	4485                	li	s1,1
1c00980e:	4401                	li	s0,0
1c009810:	8626                	mv	a2,s1
1c009812:	86a2                	mv	a3,s0
1c009814:	8552                	mv	a0,s4
1c009816:	85d6                	mv	a1,s5
1c009818:	bd1fe0ef          	jal	ra,1c0083e8 <__udivdi3>
1c00981c:	02bb9963          	bne	s7,a1,1c00984e <ulli2a+0x6c>
1c009820:	03657763          	bleu	s6,a0,1c00984e <ulli2a+0x6c>
1c009824:	4b01                	li	s6,0
1c009826:	4c25                	li	s8,9
1c009828:	0084e7b3          	or	a5,s1,s0
1c00982c:	eb8d                	bnez	a5,1c00985e <ulli2a+0x7c>
1c00982e:	00090023          	sb	zero,0(s2)
1c009832:	50b2                	lw	ra,44(sp)
1c009834:	5422                	lw	s0,40(sp)
1c009836:	5492                	lw	s1,36(sp)
1c009838:	5902                	lw	s2,32(sp)
1c00983a:	49f2                	lw	s3,28(sp)
1c00983c:	4a62                	lw	s4,24(sp)
1c00983e:	4ad2                	lw	s5,20(sp)
1c009840:	4b42                	lw	s6,16(sp)
1c009842:	4bb2                	lw	s7,12(sp)
1c009844:	4c22                	lw	s8,8(sp)
1c009846:	4c92                	lw	s9,4(sp)
1c009848:	4d02                	lw	s10,0(sp)
1c00984a:	6145                	addi	sp,sp,48
1c00984c:	8082                	ret
1c00984e:	036407b3          	mul	a5,s0,s6
1c009852:	0364b433          	mulhu	s0,s1,s6
1c009856:	036484b3          	mul	s1,s1,s6
1c00985a:	943e                	add	s0,s0,a5
1c00985c:	bf55                	j	1c009810 <ulli2a+0x2e>
1c00985e:	8626                	mv	a2,s1
1c009860:	86a2                	mv	a3,s0
1c009862:	8552                	mv	a0,s4
1c009864:	85d6                	mv	a1,s5
1c009866:	b83fe0ef          	jal	ra,1c0083e8 <__udivdi3>
1c00986a:	8626                	mv	a2,s1
1c00986c:	86a2                	mv	a3,s0
1c00986e:	85d6                	mv	a1,s5
1c009870:	8baa                	mv	s7,a0
1c009872:	8caa                	mv	s9,a0
1c009874:	8552                	mv	a0,s4
1c009876:	ed1fe0ef          	jal	ra,1c008746 <__umoddi3>
1c00987a:	00c9a603          	lw	a2,12(s3)
1c00987e:	8a2a                	mv	s4,a0
1c009880:	8aae                	mv	s5,a1
1c009882:	8526                	mv	a0,s1
1c009884:	85a2                	mv	a1,s0
1c009886:	4681                	li	a3,0
1c009888:	b61fe0ef          	jal	ra,1c0083e8 <__udivdi3>
1c00988c:	84aa                	mv	s1,a0
1c00988e:	842e                	mv	s0,a1
1c009890:	000b1963          	bnez	s6,1c0098a2 <ulli2a+0xc0>
1c009894:	01704763          	bgtz	s7,1c0098a2 <ulli2a+0xc0>
1c009898:	8dc9                	or	a1,a1,a0
1c00989a:	f5d9                	bnez	a1,1c009828 <ulli2a+0x46>
1c00989c:	03000513          	li	a0,48
1c0098a0:	a829                	j	1c0098ba <ulli2a+0xd8>
1c0098a2:	03000513          	li	a0,48
1c0098a6:	019c5a63          	ble	s9,s8,1c0098ba <ulli2a+0xd8>
1c0098aa:	0009c783          	lbu	a5,0(s3)
1c0098ae:	03700513          	li	a0,55
1c0098b2:	8b91                	andi	a5,a5,4
1c0098b4:	e399                	bnez	a5,1c0098ba <ulli2a+0xd8>
1c0098b6:	05700513          	li	a0,87
1c0098ba:	955e                	add	a0,a0,s7
1c0098bc:	00a90023          	sb	a0,0(s2)
1c0098c0:	0b05                	addi	s6,s6,1
1c0098c2:	0905                	addi	s2,s2,1
1c0098c4:	b795                	j	1c009828 <ulli2a+0x46>

1c0098c6 <uli2a>:
1c0098c6:	4994                	lw	a3,16(a1)
1c0098c8:	45d8                	lw	a4,12(a1)
1c0098ca:	4785                	li	a5,1
1c0098cc:	02f55633          	divu	a2,a0,a5
1c0098d0:	00e67863          	bleu	a4,a2,1c0098e0 <uli2a+0x1a>
1c0098d4:	4601                	li	a2,0
1c0098d6:	4325                	li	t1,9
1c0098d8:	e799                	bnez	a5,1c0098e6 <uli2a+0x20>
1c0098da:	00068023          	sb	zero,0(a3)
1c0098de:	8082                	ret
1c0098e0:	02e787b3          	mul	a5,a5,a4
1c0098e4:	b7e5                	j	1c0098cc <uli2a+0x6>
1c0098e6:	45d8                	lw	a4,12(a1)
1c0098e8:	02f55833          	divu	a6,a0,a5
1c0098ec:	02f57533          	remu	a0,a0,a5
1c0098f0:	02e7d7b3          	divu	a5,a5,a4
1c0098f4:	e619                	bnez	a2,1c009902 <uli2a+0x3c>
1c0098f6:	01004663          	bgtz	a6,1c009902 <uli2a+0x3c>
1c0098fa:	fff9                	bnez	a5,1c0098d8 <uli2a+0x12>
1c0098fc:	03000713          	li	a4,48
1c009900:	a839                	j	1c00991e <uli2a+0x58>
1c009902:	03000713          	li	a4,48
1c009906:	01035c63          	ble	a6,t1,1c00991e <uli2a+0x58>
1c00990a:	0005c883          	lbu	a7,0(a1)
1c00990e:	03700713          	li	a4,55
1c009912:	0048f893          	andi	a7,a7,4
1c009916:	00089463          	bnez	a7,1c00991e <uli2a+0x58>
1c00991a:	05700713          	li	a4,87
1c00991e:	9742                	add	a4,a4,a6
1c009920:	00e68023          	sb	a4,0(a3)
1c009924:	0605                	addi	a2,a2,1
1c009926:	0685                	addi	a3,a3,1
1c009928:	bf45                	j	1c0098d8 <uli2a+0x12>

1c00992a <ui2a>:
1c00992a:	4994                	lw	a3,16(a1)
1c00992c:	45d8                	lw	a4,12(a1)
1c00992e:	4785                	li	a5,1
1c009930:	02f55633          	divu	a2,a0,a5
1c009934:	00e67863          	bleu	a4,a2,1c009944 <ui2a+0x1a>
1c009938:	4601                	li	a2,0
1c00993a:	4325                	li	t1,9
1c00993c:	e799                	bnez	a5,1c00994a <ui2a+0x20>
1c00993e:	00068023          	sb	zero,0(a3)
1c009942:	8082                	ret
1c009944:	02e787b3          	mul	a5,a5,a4
1c009948:	b7e5                	j	1c009930 <ui2a+0x6>
1c00994a:	45d8                	lw	a4,12(a1)
1c00994c:	02f55833          	divu	a6,a0,a5
1c009950:	02f57533          	remu	a0,a0,a5
1c009954:	02e7d7b3          	divu	a5,a5,a4
1c009958:	e619                	bnez	a2,1c009966 <ui2a+0x3c>
1c00995a:	01004663          	bgtz	a6,1c009966 <ui2a+0x3c>
1c00995e:	fff9                	bnez	a5,1c00993c <ui2a+0x12>
1c009960:	03000713          	li	a4,48
1c009964:	a839                	j	1c009982 <ui2a+0x58>
1c009966:	03000713          	li	a4,48
1c00996a:	01035c63          	ble	a6,t1,1c009982 <ui2a+0x58>
1c00996e:	0005c883          	lbu	a7,0(a1)
1c009972:	03700713          	li	a4,55
1c009976:	0048f893          	andi	a7,a7,4
1c00997a:	00089463          	bnez	a7,1c009982 <ui2a+0x58>
1c00997e:	05700713          	li	a4,87
1c009982:	9742                	add	a4,a4,a6
1c009984:	00e68023          	sb	a4,0(a3)
1c009988:	0605                	addi	a2,a2,1
1c00998a:	0685                	addi	a3,a3,1
1c00998c:	bf45                	j	1c00993c <ui2a+0x12>

1c00998e <putchw>:
1c00998e:	1101                	addi	sp,sp,-32
1c009990:	cc22                	sw	s0,24(sp)
1c009992:	4a1c                	lw	a5,16(a2)
1c009994:	4240                	lw	s0,4(a2)
1c009996:	ca26                	sw	s1,20(sp)
1c009998:	c84a                	sw	s2,16(sp)
1c00999a:	c64e                	sw	s3,12(sp)
1c00999c:	ce06                	sw	ra,28(sp)
1c00999e:	c452                	sw	s4,8(sp)
1c0099a0:	892a                	mv	s2,a0
1c0099a2:	89ae                	mv	s3,a1
1c0099a4:	84b2                	mv	s1,a2
1c0099a6:	0017c70b          	p.lbu	a4,1(a5!)
1c0099aa:	c319                	beqz	a4,1c0099b0 <putchw+0x22>
1c0099ac:	08804863          	bgtz	s0,1c009a3c <putchw+0xae>
1c0099b0:	0084c783          	lbu	a5,8(s1)
1c0099b4:	c391                	beqz	a5,1c0099b8 <putchw+0x2a>
1c0099b6:	147d                	addi	s0,s0,-1
1c0099b8:	0004c783          	lbu	a5,0(s1)
1c0099bc:	0027f713          	andi	a4,a5,2
1c0099c0:	c711                	beqz	a4,1c0099cc <putchw+0x3e>
1c0099c2:	44d8                	lw	a4,12(s1)
1c0099c4:	46c1                	li	a3,16
1c0099c6:	06d71d63          	bne	a4,a3,1c009a40 <putchw+0xb2>
1c0099ca:	1479                	addi	s0,s0,-2
1c0099cc:	8ba5                	andi	a5,a5,9
1c0099ce:	8a22                	mv	s4,s0
1c0099d0:	c3c9                	beqz	a5,1c009a52 <putchw+0xc4>
1c0099d2:	0084c583          	lbu	a1,8(s1)
1c0099d6:	c199                	beqz	a1,1c0099dc <putchw+0x4e>
1c0099d8:	854a                	mv	a0,s2
1c0099da:	9982                	jalr	s3
1c0099dc:	0004c783          	lbu	a5,0(s1)
1c0099e0:	8b89                	andi	a5,a5,2
1c0099e2:	c39d                	beqz	a5,1c009a08 <putchw+0x7a>
1c0099e4:	44dc                	lw	a5,12(s1)
1c0099e6:	4741                	li	a4,16
1c0099e8:	06e79e63          	bne	a5,a4,1c009a64 <putchw+0xd6>
1c0099ec:	03000593          	li	a1,48
1c0099f0:	854a                	mv	a0,s2
1c0099f2:	9982                	jalr	s3
1c0099f4:	0004c783          	lbu	a5,0(s1)
1c0099f8:	05800593          	li	a1,88
1c0099fc:	8b91                	andi	a5,a5,4
1c0099fe:	e399                	bnez	a5,1c009a04 <putchw+0x76>
1c009a00:	07800593          	li	a1,120
1c009a04:	854a                	mv	a0,s2
1c009a06:	9982                	jalr	s3
1c009a08:	0004c783          	lbu	a5,0(s1)
1c009a0c:	8a22                	mv	s4,s0
1c009a0e:	fc17b7b3          	p.bclr	a5,a5,30,1
1c009a12:	e3bd                	bnez	a5,1c009a78 <putchw+0xea>
1c009a14:	0104aa03          	lw	s4,16(s1)
1c009a18:	001a458b          	p.lbu	a1,1(s4!)
1c009a1c:	e5bd                	bnez	a1,1c009a8a <putchw+0xfc>
1c009a1e:	0004c783          	lbu	a5,0(s1)
1c009a22:	8ba5                	andi	a5,a5,9
1c009a24:	0087b463          	p.bneimm	a5,8,1c009a2c <putchw+0x9e>
1c009a28:	06804463          	bgtz	s0,1c009a90 <putchw+0x102>
1c009a2c:	40f2                	lw	ra,28(sp)
1c009a2e:	4462                	lw	s0,24(sp)
1c009a30:	44d2                	lw	s1,20(sp)
1c009a32:	4942                	lw	s2,16(sp)
1c009a34:	49b2                	lw	s3,12(sp)
1c009a36:	4a22                	lw	s4,8(sp)
1c009a38:	6105                	addi	sp,sp,32
1c009a3a:	8082                	ret
1c009a3c:	147d                	addi	s0,s0,-1
1c009a3e:	b7a5                	j	1c0099a6 <putchw+0x18>
1c009a40:	f88736e3          	p.bneimm	a4,8,1c0099cc <putchw+0x3e>
1c009a44:	147d                	addi	s0,s0,-1
1c009a46:	b759                	j	1c0099cc <putchw+0x3e>
1c009a48:	02000593          	li	a1,32
1c009a4c:	854a                	mv	a0,s2
1c009a4e:	9982                	jalr	s3
1c009a50:	1a7d                	addi	s4,s4,-1
1c009a52:	ff404be3          	bgtz	s4,1c009a48 <putchw+0xba>
1c009a56:	fff40793          	addi	a5,s0,-1
1c009a5a:	04046433          	p.max	s0,s0,zero
1c009a5e:	40878433          	sub	s0,a5,s0
1c009a62:	bf85                	j	1c0099d2 <putchw+0x44>
1c009a64:	fa87b2e3          	p.bneimm	a5,8,1c009a08 <putchw+0x7a>
1c009a68:	03000593          	li	a1,48
1c009a6c:	bf61                	j	1c009a04 <putchw+0x76>
1c009a6e:	03000593          	li	a1,48
1c009a72:	854a                	mv	a0,s2
1c009a74:	9982                	jalr	s3
1c009a76:	1a7d                	addi	s4,s4,-1
1c009a78:	ff404be3          	bgtz	s4,1c009a6e <putchw+0xe0>
1c009a7c:	fff40793          	addi	a5,s0,-1
1c009a80:	04046433          	p.max	s0,s0,zero
1c009a84:	40878433          	sub	s0,a5,s0
1c009a88:	b771                	j	1c009a14 <putchw+0x86>
1c009a8a:	854a                	mv	a0,s2
1c009a8c:	9982                	jalr	s3
1c009a8e:	b769                	j	1c009a18 <putchw+0x8a>
1c009a90:	02000593          	li	a1,32
1c009a94:	854a                	mv	a0,s2
1c009a96:	9982                	jalr	s3
1c009a98:	147d                	addi	s0,s0,-1
1c009a9a:	b779                	j	1c009a28 <putchw+0x9a>

1c009a9c <tfp_format>:
1c009a9c:	711d                	addi	sp,sp,-96
1c009a9e:	083c                	addi	a5,sp,24
1c009aa0:	cca2                	sw	s0,88(sp)
1c009aa2:	c8ca                	sw	s2,80(sp)
1c009aa4:	c6ce                	sw	s3,76(sp)
1c009aa6:	c4d2                	sw	s4,72(sp)
1c009aa8:	c2d6                	sw	s5,68(sp)
1c009aaa:	c0da                	sw	s6,64(sp)
1c009aac:	de5e                	sw	s7,60(sp)
1c009aae:	ce86                	sw	ra,92(sp)
1c009ab0:	caa6                	sw	s1,84(sp)
1c009ab2:	dc62                	sw	s8,56(sp)
1c009ab4:	da66                	sw	s9,52(sp)
1c009ab6:	892a                	mv	s2,a0
1c009ab8:	89ae                	mv	s3,a1
1c009aba:	8436                	mv	s0,a3
1c009abc:	ca3e                	sw	a5,20(sp)
1c009abe:	02500a13          	li	s4,37
1c009ac2:	02d00b93          	li	s7,45
1c009ac6:	4a85                	li	s5,1
1c009ac8:	4b15                	li	s6,5
1c009aca:	00064583          	lbu	a1,0(a2)
1c009ace:	00160493          	addi	s1,a2,1
1c009ad2:	ed91                	bnez	a1,1c009aee <tfp_format+0x52>
1c009ad4:	40f6                	lw	ra,92(sp)
1c009ad6:	4466                	lw	s0,88(sp)
1c009ad8:	44d6                	lw	s1,84(sp)
1c009ada:	4946                	lw	s2,80(sp)
1c009adc:	49b6                	lw	s3,76(sp)
1c009ade:	4a26                	lw	s4,72(sp)
1c009ae0:	4a96                	lw	s5,68(sp)
1c009ae2:	4b06                	lw	s6,64(sp)
1c009ae4:	5bf2                	lw	s7,60(sp)
1c009ae6:	5c62                	lw	s8,56(sp)
1c009ae8:	5cd2                	lw	s9,52(sp)
1c009aea:	6125                	addi	sp,sp,96
1c009aec:	8082                	ret
1c009aee:	01458563          	beq	a1,s4,1c009af8 <tfp_format+0x5c>
1c009af2:	854a                	mv	a0,s2
1c009af4:	9982                	jalr	s3
1c009af6:	a2ad                	j	1c009c60 <tfp_format+0x1c4>
1c009af8:	00414783          	lbu	a5,4(sp)
1c009afc:	c402                	sw	zero,8(sp)
1c009afe:	00010623          	sb	zero,12(sp)
1c009b02:	c00027b3          	p.insert	a5,zero,0,0
1c009b06:	c01027b3          	p.insert	a5,zero,0,1
1c009b0a:	c03027b3          	p.insert	a5,zero,0,3
1c009b0e:	00f10223          	sb	a5,4(sp)
1c009b12:	4701                	li	a4,0
1c009b14:	4601                	li	a2,0
1c009b16:	4681                	li	a3,0
1c009b18:	4501                	li	a0,0
1c009b1a:	4581                	li	a1,0
1c009b1c:	03000813          	li	a6,48
1c009b20:	02300893          	li	a7,35
1c009b24:	0004c783          	lbu	a5,0(s1)
1c009b28:	00148c13          	addi	s8,s1,1
1c009b2c:	e3a9                	bnez	a5,1c009b6e <tfp_format+0xd2>
1c009b2e:	c519                	beqz	a0,1c009b3c <tfp_format+0xa0>
1c009b30:	00414503          	lbu	a0,4(sp)
1c009b34:	c035a533          	p.insert	a0,a1,0,3
1c009b38:	00a10223          	sb	a0,4(sp)
1c009b3c:	c619                	beqz	a2,1c009b4a <tfp_format+0xae>
1c009b3e:	00414603          	lbu	a2,4(sp)
1c009b42:	c006a633          	p.insert	a2,a3,0,0
1c009b46:	00c10223          	sb	a2,4(sp)
1c009b4a:	c719                	beqz	a4,1c009b58 <tfp_format+0xbc>
1c009b4c:	00414703          	lbu	a4,4(sp)
1c009b50:	c01aa733          	p.insert	a4,s5,0,1
1c009b54:	00e10223          	sb	a4,4(sp)
1c009b58:	fd078713          	addi	a4,a5,-48
1c009b5c:	0ff77713          	andi	a4,a4,255
1c009b60:	46a5                	li	a3,9
1c009b62:	04e6eb63          	bltu	a3,a4,1c009bb8 <tfp_format+0x11c>
1c009b66:	4681                	li	a3,0
1c009b68:	45a5                	li	a1,9
1c009b6a:	4629                	li	a2,10
1c009b6c:	a02d                	j	1c009b96 <tfp_format+0xfa>
1c009b6e:	01778c63          	beq	a5,s7,1c009b86 <tfp_format+0xea>
1c009b72:	01078663          	beq	a5,a6,1c009b7e <tfp_format+0xe2>
1c009b76:	fb179ce3          	bne	a5,a7,1c009b2e <tfp_format+0x92>
1c009b7a:	4705                	li	a4,1
1c009b7c:	a019                	j	1c009b82 <tfp_format+0xe6>
1c009b7e:	4605                	li	a2,1
1c009b80:	4685                	li	a3,1
1c009b82:	84e2                	mv	s1,s8
1c009b84:	b745                	j	1c009b24 <tfp_format+0x88>
1c009b86:	4505                	li	a0,1
1c009b88:	4585                	li	a1,1
1c009b8a:	bfe5                	j	1c009b82 <tfp_format+0xe6>
1c009b8c:	42c68733          	p.mac	a4,a3,a2
1c009b90:	001c478b          	p.lbu	a5,1(s8!)
1c009b94:	86ba                	mv	a3,a4
1c009b96:	fd078713          	addi	a4,a5,-48
1c009b9a:	0ff77513          	andi	a0,a4,255
1c009b9e:	fea5f7e3          	bleu	a0,a1,1c009b8c <tfp_format+0xf0>
1c009ba2:	f9f78713          	addi	a4,a5,-97
1c009ba6:	0ff77713          	andi	a4,a4,255
1c009baa:	06eb6563          	bltu	s6,a4,1c009c14 <tfp_format+0x178>
1c009bae:	fa978713          	addi	a4,a5,-87
1c009bb2:	fce65de3          	ble	a4,a2,1c009b8c <tfp_format+0xf0>
1c009bb6:	c436                	sw	a3,8(sp)
1c009bb8:	02e00713          	li	a4,46
1c009bbc:	02e79163          	bne	a5,a4,1c009bde <tfp_format+0x142>
1c009bc0:	00414783          	lbu	a5,4(sp)
1c009bc4:	46a5                	li	a3,9
1c009bc6:	c00aa7b3          	p.insert	a5,s5,0,0
1c009bca:	00f10223          	sb	a5,4(sp)
1c009bce:	001c478b          	p.lbu	a5,1(s8!)
1c009bd2:	fd078713          	addi	a4,a5,-48
1c009bd6:	0ff77713          	andi	a4,a4,255
1c009bda:	fee6fae3          	bleu	a4,a3,1c009bce <tfp_format+0x132>
1c009bde:	07a00713          	li	a4,122
1c009be2:	04e79263          	bne	a5,a4,1c009c26 <tfp_format+0x18a>
1c009be6:	000c4703          	lbu	a4,0(s8)
1c009bea:	001c0493          	addi	s1,s8,1
1c009bee:	06900793          	li	a5,105
1c009bf2:	1ef70563          	beq	a4,a5,1c009ddc <tfp_format+0x340>
1c009bf6:	1ee7e563          	bltu	a5,a4,1c009de0 <tfp_format+0x344>
1c009bfa:	05800793          	li	a5,88
1c009bfe:	20f70763          	beq	a4,a5,1c009e0c <tfp_format+0x370>
1c009c02:	1ce7e563          	bltu	a5,a4,1c009dcc <tfp_format+0x330>
1c009c06:	ec0707e3          	beqz	a4,1c009ad4 <tfp_format+0x38>
1c009c0a:	05471b63          	bne	a4,s4,1c009c60 <tfp_format+0x1c4>
1c009c0e:	02500593          	li	a1,37
1c009c12:	b5c5                	j	1c009af2 <tfp_format+0x56>
1c009c14:	fbf78713          	addi	a4,a5,-65
1c009c18:	0ff77713          	andi	a4,a4,255
1c009c1c:	f8eb6de3          	bltu	s6,a4,1c009bb6 <tfp_format+0x11a>
1c009c20:	fc978713          	addi	a4,a5,-55
1c009c24:	b779                	j	1c009bb2 <tfp_format+0x116>
1c009c26:	06c00713          	li	a4,108
1c009c2a:	20e79463          	bne	a5,a4,1c009e32 <tfp_format+0x396>
1c009c2e:	84e2                	mv	s1,s8
1c009c30:	0014c70b          	p.lbu	a4,1(s1!)
1c009c34:	faf71de3          	bne	a4,a5,1c009bee <tfp_format+0x152>
1c009c38:	001c4783          	lbu	a5,1(s8)
1c009c3c:	06900713          	li	a4,105
1c009c40:	002c0493          	addi	s1,s8,2
1c009c44:	02e78863          	beq	a5,a4,1c009c74 <tfp_format+0x1d8>
1c009c48:	06f76763          	bltu	a4,a5,1c009cb6 <tfp_format+0x21a>
1c009c4c:	05800713          	li	a4,88
1c009c50:	0ae78d63          	beq	a5,a4,1c009d0a <tfp_format+0x26e>
1c009c54:	00f76863          	bltu	a4,a5,1c009c64 <tfp_format+0x1c8>
1c009c58:	e6078ee3          	beqz	a5,1c009ad4 <tfp_format+0x38>
1c009c5c:	fb4789e3          	beq	a5,s4,1c009c0e <tfp_format+0x172>
1c009c60:	8626                	mv	a2,s1
1c009c62:	b5a5                	j	1c009aca <tfp_format+0x2e>
1c009c64:	06300713          	li	a4,99
1c009c68:	12e78f63          	beq	a5,a4,1c009da6 <tfp_format+0x30a>
1c009c6c:	06400713          	li	a4,100
1c009c70:	fee798e3          	bne	a5,a4,1c009c60 <tfp_format+0x1c4>
1c009c74:	4789                	li	a5,2
1c009c76:	4729                	li	a4,10
1c009c78:	c83a                	sw	a4,16(sp)
1c009c7a:	0e27b363          	p.bneimm	a5,2,1c009d60 <tfp_format+0x2c4>
1c009c7e:	041d                	addi	s0,s0,7
1c009c80:	c4043433          	p.bclr	s0,s0,2,0
1c009c84:	404c                	lw	a1,4(s0)
1c009c86:	00840c13          	addi	s8,s0,8
1c009c8a:	4008                	lw	a0,0(s0)
1c009c8c:	0005dd63          	bgez	a1,1c009ca6 <tfp_format+0x20a>
1c009c90:	40a00533          	neg	a0,a0
1c009c94:	00a037b3          	snez	a5,a0
1c009c98:	40b005b3          	neg	a1,a1
1c009c9c:	8d9d                	sub	a1,a1,a5
1c009c9e:	02d00793          	li	a5,45
1c009ca2:	00f10623          	sb	a5,12(sp)
1c009ca6:	0050                	addi	a2,sp,4
1c009ca8:	3e2d                	jal	1c0097e2 <ulli2a>
1c009caa:	0050                	addi	a2,sp,4
1c009cac:	85ce                	mv	a1,s3
1c009cae:	854a                	mv	a0,s2
1c009cb0:	39f9                	jal	1c00998e <putchw>
1c009cb2:	8462                	mv	s0,s8
1c009cb4:	b775                	j	1c009c60 <tfp_format+0x1c4>
1c009cb6:	07300713          	li	a4,115
1c009cba:	0ee78e63          	beq	a5,a4,1c009db6 <tfp_format+0x31a>
1c009cbe:	02f76d63          	bltu	a4,a5,1c009cf8 <tfp_format+0x25c>
1c009cc2:	06f00713          	li	a4,111
1c009cc6:	0ce78963          	beq	a5,a4,1c009d98 <tfp_format+0x2fc>
1c009cca:	07000713          	li	a4,112
1c009cce:	f8f719e3          	bne	a4,a5,1c009c60 <tfp_format+0x1c4>
1c009cd2:	00414783          	lbu	a5,4(sp)
1c009cd6:	4741                	li	a4,16
1c009cd8:	c83a                	sw	a4,16(sp)
1c009cda:	c01aa7b3          	p.insert	a5,s5,0,1
1c009cde:	c02027b3          	p.insert	a5,zero,0,2
1c009ce2:	00f10223          	sb	a5,4(sp)
1c009ce6:	8c26                	mv	s8,s1
1c009ce8:	4008                	lw	a0,0(s0)
1c009cea:	00440c93          	addi	s9,s0,4
1c009cee:	004c                	addi	a1,sp,4
1c009cf0:	392d                	jal	1c00992a <ui2a>
1c009cf2:	84e2                	mv	s1,s8
1c009cf4:	8466                	mv	s0,s9
1c009cf6:	a8b1                	j	1c009d52 <tfp_format+0x2b6>
1c009cf8:	07500713          	li	a4,117
1c009cfc:	4689                	li	a3,2
1c009cfe:	02e78563          	beq	a5,a4,1c009d28 <tfp_format+0x28c>
1c009d02:	07800713          	li	a4,120
1c009d06:	f4e79de3          	bne	a5,a4,1c009c60 <tfp_format+0x1c4>
1c009d0a:	4741                	li	a4,16
1c009d0c:	c83a                	sw	a4,16(sp)
1c009d0e:	00414703          	lbu	a4,4(sp)
1c009d12:	fa878793          	addi	a5,a5,-88
1c009d16:	0017b793          	seqz	a5,a5
1c009d1a:	c027a733          	p.insert	a4,a5,0,2
1c009d1e:	00e10223          	sb	a4,4(sp)
1c009d22:	a039                	j	1c009d30 <tfp_format+0x294>
1c009d24:	84e2                	mv	s1,s8
1c009d26:	4681                	li	a3,0
1c009d28:	47a9                	li	a5,10
1c009d2a:	c83e                	sw	a5,16(sp)
1c009d2c:	0026bd63          	p.bneimm	a3,2,1c009d46 <tfp_format+0x2aa>
1c009d30:	00740693          	addi	a3,s0,7
1c009d34:	c406b6b3          	p.bclr	a3,a3,2,0
1c009d38:	4288                	lw	a0,0(a3)
1c009d3a:	42cc                	lw	a1,4(a3)
1c009d3c:	0050                	addi	a2,sp,4
1c009d3e:	00868413          	addi	s0,a3,8
1c009d42:	3445                	jal	1c0097e2 <ulli2a>
1c009d44:	a039                	j	1c009d52 <tfp_format+0x2b6>
1c009d46:	0044250b          	p.lw	a0,4(s0!)
1c009d4a:	004c                	addi	a1,sp,4
1c009d4c:	0016b863          	p.bneimm	a3,1,1c009d5c <tfp_format+0x2c0>
1c009d50:	3e9d                	jal	1c0098c6 <uli2a>
1c009d52:	0050                	addi	a2,sp,4
1c009d54:	85ce                	mv	a1,s3
1c009d56:	854a                	mv	a0,s2
1c009d58:	391d                	jal	1c00998e <putchw>
1c009d5a:	b719                	j	1c009c60 <tfp_format+0x1c4>
1c009d5c:	36f9                	jal	1c00992a <ui2a>
1c009d5e:	bfd5                	j	1c009d52 <tfp_format+0x2b6>
1c009d60:	00440c13          	addi	s8,s0,4
1c009d64:	4008                	lw	a0,0(s0)
1c009d66:	0017bd63          	p.bneimm	a5,1,1c009d80 <tfp_format+0x2e4>
1c009d6a:	00055863          	bgez	a0,1c009d7a <tfp_format+0x2de>
1c009d6e:	02d00793          	li	a5,45
1c009d72:	40a00533          	neg	a0,a0
1c009d76:	00f10623          	sb	a5,12(sp)
1c009d7a:	004c                	addi	a1,sp,4
1c009d7c:	36a9                	jal	1c0098c6 <uli2a>
1c009d7e:	b735                	j	1c009caa <tfp_format+0x20e>
1c009d80:	00055863          	bgez	a0,1c009d90 <tfp_format+0x2f4>
1c009d84:	02d00793          	li	a5,45
1c009d88:	40a00533          	neg	a0,a0
1c009d8c:	00f10623          	sb	a5,12(sp)
1c009d90:	004c                	addi	a1,sp,4
1c009d92:	3e61                	jal	1c00992a <ui2a>
1c009d94:	bf19                	j	1c009caa <tfp_format+0x20e>
1c009d96:	84e2                	mv	s1,s8
1c009d98:	47a1                	li	a5,8
1c009d9a:	c83e                	sw	a5,16(sp)
1c009d9c:	00440c13          	addi	s8,s0,4
1c009da0:	004c                	addi	a1,sp,4
1c009da2:	4008                	lw	a0,0(s0)
1c009da4:	b7fd                	j	1c009d92 <tfp_format+0x2f6>
1c009da6:	00044583          	lbu	a1,0(s0)
1c009daa:	854a                	mv	a0,s2
1c009dac:	00440c13          	addi	s8,s0,4
1c009db0:	9982                	jalr	s3
1c009db2:	b701                	j	1c009cb2 <tfp_format+0x216>
1c009db4:	84e2                	mv	s1,s8
1c009db6:	401c                	lw	a5,0(s0)
1c009db8:	0050                	addi	a2,sp,4
1c009dba:	85ce                	mv	a1,s3
1c009dbc:	854a                	mv	a0,s2
1c009dbe:	ca3e                	sw	a5,20(sp)
1c009dc0:	36f9                	jal	1c00998e <putchw>
1c009dc2:	083c                	addi	a5,sp,24
1c009dc4:	00440c13          	addi	s8,s0,4
1c009dc8:	ca3e                	sw	a5,20(sp)
1c009dca:	b5e5                	j	1c009cb2 <tfp_format+0x216>
1c009dcc:	06300793          	li	a5,99
1c009dd0:	fcf70be3          	beq	a4,a5,1c009da6 <tfp_format+0x30a>
1c009dd4:	06400793          	li	a5,100
1c009dd8:	e8f714e3          	bne	a4,a5,1c009c60 <tfp_format+0x1c4>
1c009ddc:	4785                	li	a5,1
1c009dde:	bd61                	j	1c009c76 <tfp_format+0x1da>
1c009de0:	07300793          	li	a5,115
1c009de4:	fcf709e3          	beq	a4,a5,1c009db6 <tfp_format+0x31a>
1c009de8:	00e7e963          	bltu	a5,a4,1c009dfa <tfp_format+0x35e>
1c009dec:	06f00793          	li	a5,111
1c009df0:	faf704e3          	beq	a4,a5,1c009d98 <tfp_format+0x2fc>
1c009df4:	07000793          	li	a5,112
1c009df8:	bdd9                	j	1c009cce <tfp_format+0x232>
1c009dfa:	07500793          	li	a5,117
1c009dfe:	4685                	li	a3,1
1c009e00:	f2f704e3          	beq	a4,a5,1c009d28 <tfp_format+0x28c>
1c009e04:	07800793          	li	a5,120
1c009e08:	e4f71ce3          	bne	a4,a5,1c009c60 <tfp_format+0x1c4>
1c009e0c:	47c1                	li	a5,16
1c009e0e:	c83e                	sw	a5,16(sp)
1c009e10:	00414783          	lbu	a5,4(sp)
1c009e14:	4008                	lw	a0,0(s0)
1c009e16:	fa870713          	addi	a4,a4,-88 # 1a10efa8 <__rt_iodev_uart_baudrate+0x1a076640>
1c009e1a:	00173713          	seqz	a4,a4
1c009e1e:	c02727b3          	p.insert	a5,a4,0,2
1c009e22:	00440c13          	addi	s8,s0,4
1c009e26:	004c                	addi	a1,sp,4
1c009e28:	00f10223          	sb	a5,4(sp)
1c009e2c:	8462                	mv	s0,s8
1c009e2e:	3c61                	jal	1c0098c6 <uli2a>
1c009e30:	b70d                	j	1c009d52 <tfp_format+0x2b6>
1c009e32:	06900713          	li	a4,105
1c009e36:	02e78a63          	beq	a5,a4,1c009e6a <tfp_format+0x3ce>
1c009e3a:	02f76b63          	bltu	a4,a5,1c009e70 <tfp_format+0x3d4>
1c009e3e:	05800713          	li	a4,88
1c009e42:	04e78f63          	beq	a5,a4,1c009ea0 <tfp_format+0x404>
1c009e46:	00f76963          	bltu	a4,a5,1c009e58 <tfp_format+0x3bc>
1c009e4a:	c80785e3          	beqz	a5,1c009ad4 <tfp_format+0x38>
1c009e4e:	84e2                	mv	s1,s8
1c009e50:	db478fe3          	beq	a5,s4,1c009c0e <tfp_format+0x172>
1c009e54:	84e2                	mv	s1,s8
1c009e56:	b529                	j	1c009c60 <tfp_format+0x1c4>
1c009e58:	06300713          	li	a4,99
1c009e5c:	84e2                	mv	s1,s8
1c009e5e:	f4e784e3          	beq	a5,a4,1c009da6 <tfp_format+0x30a>
1c009e62:	06400713          	li	a4,100
1c009e66:	fee797e3          	bne	a5,a4,1c009e54 <tfp_format+0x3b8>
1c009e6a:	84e2                	mv	s1,s8
1c009e6c:	4781                	li	a5,0
1c009e6e:	b521                	j	1c009c76 <tfp_format+0x1da>
1c009e70:	07300713          	li	a4,115
1c009e74:	f4e780e3          	beq	a5,a4,1c009db4 <tfp_format+0x318>
1c009e78:	00f76c63          	bltu	a4,a5,1c009e90 <tfp_format+0x3f4>
1c009e7c:	06f00713          	li	a4,111
1c009e80:	f0e78be3          	beq	a5,a4,1c009d96 <tfp_format+0x2fa>
1c009e84:	07000713          	li	a4,112
1c009e88:	84e2                	mv	s1,s8
1c009e8a:	e4e784e3          	beq	a5,a4,1c009cd2 <tfp_format+0x236>
1c009e8e:	b7d9                	j	1c009e54 <tfp_format+0x3b8>
1c009e90:	07500713          	li	a4,117
1c009e94:	e8e788e3          	beq	a5,a4,1c009d24 <tfp_format+0x288>
1c009e98:	07800713          	li	a4,120
1c009e9c:	fae79ce3          	bne	a5,a4,1c009e54 <tfp_format+0x3b8>
1c009ea0:	4741                	li	a4,16
1c009ea2:	c83a                	sw	a4,16(sp)
1c009ea4:	00414703          	lbu	a4,4(sp)
1c009ea8:	fa878793          	addi	a5,a5,-88
1c009eac:	0017b793          	seqz	a5,a5
1c009eb0:	c027a733          	p.insert	a4,a5,0,2
1c009eb4:	00e10223          	sb	a4,4(sp)
1c009eb8:	bd05                	j	1c009ce8 <tfp_format+0x24c>

1c009eba <__rt_uart_wait_tx_done.isra.3>:
1c009eba:	1a102737          	lui	a4,0x1a102
1c009ebe:	0761                	addi	a4,a4,24
1c009ec0:	431c                	lw	a5,0(a4)
1c009ec2:	8bc1                	andi	a5,a5,16
1c009ec4:	eb91                	bnez	a5,1c009ed8 <__rt_uart_wait_tx_done.isra.3+0x1e>
1c009ec6:	1a102737          	lui	a4,0x1a102
1c009eca:	02070713          	addi	a4,a4,32 # 1a102020 <__rt_iodev_uart_baudrate+0x1a0696b8>
1c009ece:	431c                	lw	a5,0(a4)
1c009ed0:	fc17b7b3          	p.bclr	a5,a5,30,1
1c009ed4:	ffed                	bnez	a5,1c009ece <__rt_uart_wait_tx_done.isra.3+0x14>
1c009ed6:	8082                	ret
1c009ed8:	10500073          	wfi
1c009edc:	b7d5                	j	1c009ec0 <__rt_uart_wait_tx_done.isra.3+0x6>

1c009ede <__rt_uart_setfreq_before>:
1c009ede:	1c0017b7          	lui	a5,0x1c001
1c009ee2:	ea07a783          	lw	a5,-352(a5) # 1c000ea0 <__rt_uart>
1c009ee6:	cf91                	beqz	a5,1c009f02 <__rt_uart_setfreq_before+0x24>
1c009ee8:	1141                	addi	sp,sp,-16
1c009eea:	c606                	sw	ra,12(sp)
1c009eec:	37f9                	jal	1c009eba <__rt_uart_wait_tx_done.isra.3>
1c009eee:	40b2                	lw	ra,12(sp)
1c009ef0:	005007b7          	lui	a5,0x500
1c009ef4:	1a102737          	lui	a4,0x1a102
1c009ef8:	0799                	addi	a5,a5,6
1c009efa:	d35c                	sw	a5,36(a4)
1c009efc:	4501                	li	a0,0
1c009efe:	0141                	addi	sp,sp,16
1c009f00:	8082                	ret
1c009f02:	4501                	li	a0,0
1c009f04:	8082                	ret

1c009f06 <soc_eu_fcEventMask_setEvent>:
1c009f06:	47fd                	li	a5,31
1c009f08:	4721                	li	a4,8
1c009f0a:	00a7d463          	ble	a0,a5,1c009f12 <soc_eu_fcEventMask_setEvent+0xc>
1c009f0e:	1501                	addi	a0,a0,-32
1c009f10:	4711                	li	a4,4
1c009f12:	1a1067b7          	lui	a5,0x1a106
1c009f16:	973e                	add	a4,a4,a5
1c009f18:	4314                	lw	a3,0(a4)
1c009f1a:	4785                	li	a5,1
1c009f1c:	00a79533          	sll	a0,a5,a0
1c009f20:	fff54513          	not	a0,a0
1c009f24:	8d75                	and	a0,a0,a3
1c009f26:	c308                	sw	a0,0(a4)
1c009f28:	8082                	ret

1c009f2a <__rt_uart_setfreq_after>:
1c009f2a:	1c001737          	lui	a4,0x1c001
1c009f2e:	ea070713          	addi	a4,a4,-352 # 1c000ea0 <__rt_uart>
1c009f32:	431c                	lw	a5,0(a4)
1c009f34:	cf91                	beqz	a5,1c009f50 <__rt_uart_setfreq_after+0x26>
1c009f36:	1c0017b7          	lui	a5,0x1c001
1c009f3a:	ed07a783          	lw	a5,-304(a5) # 1c000ed0 <__rt_freq_domains>
1c009f3e:	4718                	lw	a4,8(a4)
1c009f40:	02e7d7b3          	divu	a5,a5,a4
1c009f44:	1a102737          	lui	a4,0x1a102
1c009f48:	07c2                	slli	a5,a5,0x10
1c009f4a:	3067e793          	ori	a5,a5,774
1c009f4e:	d35c                	sw	a5,36(a4)
1c009f50:	4501                	li	a0,0
1c009f52:	8082                	ret

1c009f54 <rt_uart_conf_init>:
1c009f54:	000997b7          	lui	a5,0x99
1c009f58:	96878793          	addi	a5,a5,-1688 # 98968 <__rt_iodev_uart_baudrate>
1c009f5c:	c11c                	sw	a5,0(a0)
1c009f5e:	57fd                	li	a5,-1
1c009f60:	c15c                	sw	a5,4(a0)
1c009f62:	8082                	ret

1c009f64 <__rt_uart_open>:
1c009f64:	1101                	addi	sp,sp,-32
1c009f66:	ce06                	sw	ra,28(sp)
1c009f68:	cc22                	sw	s0,24(sp)
1c009f6a:	ca26                	sw	s1,20(sp)
1c009f6c:	c84a                	sw	s2,16(sp)
1c009f6e:	c64e                	sw	s3,12(sp)
1c009f70:	300479f3          	csrrci	s3,mstatus,8
1c009f74:	cd8d                	beqz	a1,1c009fae <__rt_uart_open+0x4a>
1c009f76:	4198                	lw	a4,0(a1)
1c009f78:	1c0017b7          	lui	a5,0x1c001
1c009f7c:	ea078413          	addi	s0,a5,-352 # 1c000ea0 <__rt_uart>
1c009f80:	00451613          	slli	a2,a0,0x4
1c009f84:	9432                	add	s0,s0,a2
1c009f86:	4014                	lw	a3,0(s0)
1c009f88:	ea078793          	addi	a5,a5,-352
1c009f8c:	c695                	beqz	a3,1c009fb8 <__rt_uart_open+0x54>
1c009f8e:	c589                	beqz	a1,1c009f98 <__rt_uart_open+0x34>
1c009f90:	418c                	lw	a1,0(a1)
1c009f92:	4418                	lw	a4,8(s0)
1c009f94:	06e59763          	bne	a1,a4,1c00a002 <__rt_uart_open+0x9e>
1c009f98:	0685                	addi	a3,a3,1
1c009f9a:	00d7e623          	p.sw	a3,a2(a5)
1c009f9e:	8522                	mv	a0,s0
1c009fa0:	40f2                	lw	ra,28(sp)
1c009fa2:	4462                	lw	s0,24(sp)
1c009fa4:	44d2                	lw	s1,20(sp)
1c009fa6:	4942                	lw	s2,16(sp)
1c009fa8:	49b2                	lw	s3,12(sp)
1c009faa:	6105                	addi	sp,sp,32
1c009fac:	8082                	ret
1c009fae:	00099737          	lui	a4,0x99
1c009fb2:	96870713          	addi	a4,a4,-1688 # 98968 <__rt_iodev_uart_baudrate>
1c009fb6:	b7c9                	j	1c009f78 <__rt_uart_open+0x14>
1c009fb8:	1a102937          	lui	s2,0x1a102
1c009fbc:	4785                	li	a5,1
1c009fbe:	c01c                	sw	a5,0(s0)
1c009fc0:	c418                	sw	a4,8(s0)
1c009fc2:	c048                	sw	a0,4(s0)
1c009fc4:	78090713          	addi	a4,s2,1920 # 1a102780 <__rt_iodev_uart_baudrate+0x1a069e18>
1c009fc8:	4314                	lw	a3,0(a4)
1c009fca:	00a797b3          	sll	a5,a5,a0
1c009fce:	00151493          	slli	s1,a0,0x1
1c009fd2:	8fd5                	or	a5,a5,a3
1c009fd4:	c31c                	sw	a5,0(a4)
1c009fd6:	8526                	mv	a0,s1
1c009fd8:	373d                	jal	1c009f06 <soc_eu_fcEventMask_setEvent>
1c009fda:	00148513          	addi	a0,s1,1
1c009fde:	3725                	jal	1c009f06 <soc_eu_fcEventMask_setEvent>
1c009fe0:	1c0017b7          	lui	a5,0x1c001
1c009fe4:	ed07a783          	lw	a5,-304(a5) # 1c000ed0 <__rt_freq_domains>
1c009fe8:	4418                	lw	a4,8(s0)
1c009fea:	02490913          	addi	s2,s2,36
1c009fee:	02e7d7b3          	divu	a5,a5,a4
1c009ff2:	07c2                	slli	a5,a5,0x10
1c009ff4:	3067e793          	ori	a5,a5,774
1c009ff8:	00f92023          	sw	a5,0(s2)
1c009ffc:	30099073          	csrw	mstatus,s3
1c00a000:	bf79                	j	1c009f9e <__rt_uart_open+0x3a>
1c00a002:	4401                	li	s0,0
1c00a004:	bf69                	j	1c009f9e <__rt_uart_open+0x3a>

1c00a006 <rt_uart_close>:
1c00a006:	1141                	addi	sp,sp,-16
1c00a008:	c606                	sw	ra,12(sp)
1c00a00a:	c422                	sw	s0,8(sp)
1c00a00c:	c226                	sw	s1,4(sp)
1c00a00e:	300474f3          	csrrci	s1,mstatus,8
1c00a012:	411c                	lw	a5,0(a0)
1c00a014:	17fd                	addi	a5,a5,-1
1c00a016:	c11c                	sw	a5,0(a0)
1c00a018:	e385                	bnez	a5,1c00a038 <rt_uart_close+0x32>
1c00a01a:	842a                	mv	s0,a0
1c00a01c:	3d79                	jal	1c009eba <__rt_uart_wait_tx_done.isra.3>
1c00a01e:	1a102737          	lui	a4,0x1a102
1c00a022:	4050                	lw	a2,4(s0)
1c00a024:	78070713          	addi	a4,a4,1920 # 1a102780 <__rt_iodev_uart_baudrate+0x1a069e18>
1c00a028:	4314                	lw	a3,0(a4)
1c00a02a:	4785                	li	a5,1
1c00a02c:	00c797b3          	sll	a5,a5,a2
1c00a030:	fff7c793          	not	a5,a5
1c00a034:	8ff5                	and	a5,a5,a3
1c00a036:	c31c                	sw	a5,0(a4)
1c00a038:	30049073          	csrw	mstatus,s1
1c00a03c:	40b2                	lw	ra,12(sp)
1c00a03e:	4422                	lw	s0,8(sp)
1c00a040:	4492                	lw	s1,4(sp)
1c00a042:	0141                	addi	sp,sp,16
1c00a044:	8082                	ret

1c00a046 <__rt_uart_init>:
1c00a046:	1c00a5b7          	lui	a1,0x1c00a
1c00a04a:	1141                	addi	sp,sp,-16
1c00a04c:	4601                	li	a2,0
1c00a04e:	ede58593          	addi	a1,a1,-290 # 1c009ede <__rt_uart_setfreq_before>
1c00a052:	4511                	li	a0,4
1c00a054:	c606                	sw	ra,12(sp)
1c00a056:	c422                	sw	s0,8(sp)
1c00a058:	bd1fe0ef          	jal	ra,1c008c28 <__rt_cbsys_add>
1c00a05c:	1c00a5b7          	lui	a1,0x1c00a
1c00a060:	842a                	mv	s0,a0
1c00a062:	4601                	li	a2,0
1c00a064:	f2a58593          	addi	a1,a1,-214 # 1c009f2a <__rt_uart_setfreq_after>
1c00a068:	4515                	li	a0,5
1c00a06a:	bbffe0ef          	jal	ra,1c008c28 <__rt_cbsys_add>
1c00a06e:	1c0017b7          	lui	a5,0x1c001
1c00a072:	ea07a023          	sw	zero,-352(a5) # 1c000ea0 <__rt_uart>
1c00a076:	8d41                	or	a0,a0,s0
1c00a078:	c10d                	beqz	a0,1c00a09a <__rt_uart_init+0x54>
1c00a07a:	f1402673          	csrr	a2,mhartid
1c00a07e:	1c000537          	lui	a0,0x1c000
1c00a082:	40565593          	srai	a1,a2,0x5
1c00a086:	f265b5b3          	p.bclr	a1,a1,25,6
1c00a08a:	f4563633          	p.bclr	a2,a2,26,5
1c00a08e:	41450513          	addi	a0,a0,1044 # 1c000414 <__DTOR_END__+0x1fc>
1c00a092:	e94ff0ef          	jal	ra,1c009726 <printf>
1c00a096:	eeeff0ef          	jal	ra,1c009784 <abort>
1c00a09a:	40b2                	lw	ra,12(sp)
1c00a09c:	4422                	lw	s0,8(sp)
1c00a09e:	0141                	addi	sp,sp,16
1c00a0a0:	8082                	ret
	...
